ccopy_reg
_reconstructor
p0
(cnetworkx.classes.graph
Graph
p1
c__builtin__
object
p2
Ntp3
Rp4
(dp5
S'adjlist_inner_dict_factory'
p6
c__builtin__
dict
p7
sS'node_dict_factory'
p8
g7
sS'edge_attr_dict_factory'
p9
g7
sS'_node'
p10
(dp11
I0
(dp12
sI1
(dp13
sI2
(dp14
sI3
(dp15
sI4
(dp16
sI5
(dp17
sI6
(dp18
sI7
(dp19
sI8
(dp20
sI9
(dp21
sI10
(dp22
sI11
(dp23
sI12
(dp24
sI13
(dp25
sI14
(dp26
sI15
(dp27
sI16
(dp28
sI17
(dp29
sI18
(dp30
sI19
(dp31
sI20
(dp32
sI21
(dp33
sI22
(dp34
sI23
(dp35
sI24
(dp36
sI25
(dp37
sI26
(dp38
sI27
(dp39
sI28
(dp40
sI29
(dp41
sI30
(dp42
sI31
(dp43
sI32
(dp44
sI33
(dp45
sI34
(dp46
sI35
(dp47
sI36
(dp48
sI37
(dp49
sI38
(dp50
sI39
(dp51
sI40
(dp52
sI41
(dp53
sI42
(dp54
sI43
(dp55
sI44
(dp56
sI45
(dp57
sI46
(dp58
sI47
(dp59
sI48
(dp60
sI49
(dp61
sI50
(dp62
sI51
(dp63
sI52
(dp64
sI53
(dp65
sI54
(dp66
sI55
(dp67
sI56
(dp68
sI57
(dp69
sI58
(dp70
sI59
(dp71
sI60
(dp72
sI61
(dp73
sI62
(dp74
sI63
(dp75
sI64
(dp76
sI65
(dp77
sI66
(dp78
sI67
(dp79
sI68
(dp80
sI69
(dp81
sI70
(dp82
sI71
(dp83
sI72
(dp84
sI73
(dp85
sI74
(dp86
sI75
(dp87
sI76
(dp88
sI77
(dp89
sI78
(dp90
sI79
(dp91
sI80
(dp92
sI81
(dp93
sI82
(dp94
sI83
(dp95
sI84
(dp96
sI85
(dp97
sI86
(dp98
sI87
(dp99
sI88
(dp100
sI89
(dp101
sI90
(dp102
sI91
(dp103
sI92
(dp104
sI93
(dp105
sI94
(dp106
sI95
(dp107
sI96
(dp108
sI97
(dp109
sI98
(dp110
sI99
(dp111
sI100
(dp112
sI101
(dp113
sI102
(dp114
sI103
(dp115
sI104
(dp116
sI105
(dp117
sI106
(dp118
sI107
(dp119
sI108
(dp120
sI109
(dp121
sI110
(dp122
sI111
(dp123
sI112
(dp124
sI113
(dp125
sI114
(dp126
sI115
(dp127
sI116
(dp128
sI117
(dp129
sI118
(dp130
sI119
(dp131
sI120
(dp132
sI121
(dp133
sI122
(dp134
sI123
(dp135
sI124
(dp136
sI125
(dp137
sI126
(dp138
sI127
(dp139
sI128
(dp140
sI129
(dp141
sI130
(dp142
sI131
(dp143
sI132
(dp144
sI133
(dp145
sI134
(dp146
sI135
(dp147
sI136
(dp148
sI137
(dp149
sI138
(dp150
sI139
(dp151
sI140
(dp152
sI141
(dp153
sI142
(dp154
sI143
(dp155
sI144
(dp156
sI145
(dp157
sI146
(dp158
sI147
(dp159
sI148
(dp160
sI149
(dp161
sI150
(dp162
sI151
(dp163
sI152
(dp164
sI153
(dp165
sI154
(dp166
sI155
(dp167
sI156
(dp168
sI157
(dp169
sI158
(dp170
sI159
(dp171
sI160
(dp172
sI161
(dp173
sI162
(dp174
sI163
(dp175
sI164
(dp176
sI165
(dp177
sI166
(dp178
sI167
(dp179
sI168
(dp180
sI169
(dp181
sI170
(dp182
sI171
(dp183
sI172
(dp184
sI173
(dp185
sI174
(dp186
sI175
(dp187
sI176
(dp188
sI177
(dp189
sI178
(dp190
sI179
(dp191
sI180
(dp192
sI181
(dp193
sI182
(dp194
sI183
(dp195
sI184
(dp196
sI185
(dp197
sI186
(dp198
sI187
(dp199
sI188
(dp200
sI189
(dp201
sI190
(dp202
sI191
(dp203
sI192
(dp204
sI193
(dp205
sI194
(dp206
sI195
(dp207
sI196
(dp208
sI197
(dp209
sI198
(dp210
sI199
(dp211
sI200
(dp212
sI201
(dp213
sI202
(dp214
sI203
(dp215
sI204
(dp216
sI205
(dp217
sI206
(dp218
sI207
(dp219
sI208
(dp220
sI209
(dp221
sI210
(dp222
sI211
(dp223
sI212
(dp224
sI213
(dp225
sI214
(dp226
sI215
(dp227
sI216
(dp228
sI217
(dp229
sI218
(dp230
sI219
(dp231
sI220
(dp232
sI221
(dp233
sI222
(dp234
sI223
(dp235
sI224
(dp236
sI225
(dp237
sI226
(dp238
sI227
(dp239
sI228
(dp240
sI229
(dp241
sI230
(dp242
sI231
(dp243
sI232
(dp244
sI233
(dp245
sI234
(dp246
sI235
(dp247
sI236
(dp248
sI237
(dp249
sI238
(dp250
sI239
(dp251
sI240
(dp252
sI241
(dp253
sI242
(dp254
sI243
(dp255
sI244
(dp256
sI245
(dp257
sI246
(dp258
sI247
(dp259
sI248
(dp260
sI249
(dp261
sI250
(dp262
sI251
(dp263
sI252
(dp264
sI253
(dp265
sI254
(dp266
sI255
(dp267
sI256
(dp268
sI257
(dp269
sI258
(dp270
sI259
(dp271
sI260
(dp272
sI261
(dp273
sI262
(dp274
sI263
(dp275
sI264
(dp276
sI265
(dp277
sI266
(dp278
sI267
(dp279
sI268
(dp280
sI269
(dp281
sI270
(dp282
sI271
(dp283
sI272
(dp284
sI273
(dp285
sI274
(dp286
sI275
(dp287
sI276
(dp288
sI277
(dp289
sI278
(dp290
sI279
(dp291
sI280
(dp292
sI281
(dp293
sI282
(dp294
sI283
(dp295
sI284
(dp296
sI285
(dp297
sI286
(dp298
sI287
(dp299
sI288
(dp300
sI289
(dp301
sI290
(dp302
sI291
(dp303
sI292
(dp304
sI293
(dp305
sI294
(dp306
sI295
(dp307
sI296
(dp308
sI297
(dp309
sI298
(dp310
sI299
(dp311
sI300
(dp312
sI301
(dp313
sI302
(dp314
sI303
(dp315
sI304
(dp316
sI305
(dp317
sI306
(dp318
sI307
(dp319
sI308
(dp320
sI309
(dp321
sI310
(dp322
sI311
(dp323
sI312
(dp324
sI313
(dp325
sI314
(dp326
sI315
(dp327
sI316
(dp328
sI317
(dp329
sI318
(dp330
sI319
(dp331
sI320
(dp332
sI321
(dp333
sI322
(dp334
sI323
(dp335
sI324
(dp336
sI325
(dp337
sI326
(dp338
sI327
(dp339
sI328
(dp340
sI329
(dp341
sI330
(dp342
sI331
(dp343
sI332
(dp344
sI333
(dp345
sI334
(dp346
sI335
(dp347
sI336
(dp348
sI337
(dp349
sI338
(dp350
sI339
(dp351
sI340
(dp352
sI341
(dp353
sI342
(dp354
sI343
(dp355
sI344
(dp356
sI345
(dp357
sI346
(dp358
sI347
(dp359
sI348
(dp360
sI349
(dp361
sI350
(dp362
sI351
(dp363
sI352
(dp364
sI353
(dp365
sI354
(dp366
sI355
(dp367
sI356
(dp368
sI357
(dp369
sI358
(dp370
sI359
(dp371
sI360
(dp372
sI361
(dp373
sI362
(dp374
sI363
(dp375
sI364
(dp376
sI365
(dp377
sI366
(dp378
sI367
(dp379
sI368
(dp380
sI369
(dp381
sI370
(dp382
sI371
(dp383
sI372
(dp384
sI373
(dp385
sI374
(dp386
sI375
(dp387
sI376
(dp388
sI377
(dp389
sI378
(dp390
sI379
(dp391
sI380
(dp392
sI381
(dp393
sI382
(dp394
sI383
(dp395
sI384
(dp396
sI385
(dp397
sI386
(dp398
sI387
(dp399
sI388
(dp400
sI389
(dp401
sI390
(dp402
sI391
(dp403
sI392
(dp404
sI393
(dp405
sI394
(dp406
sI395
(dp407
sI396
(dp408
sI397
(dp409
sI398
(dp410
sI399
(dp411
sI400
(dp412
sI401
(dp413
sI402
(dp414
sI403
(dp415
sI404
(dp416
sI405
(dp417
sI406
(dp418
sI407
(dp419
sI408
(dp420
sI409
(dp421
sI410
(dp422
sI411
(dp423
sI412
(dp424
sI413
(dp425
sI414
(dp426
sI415
(dp427
sI416
(dp428
sI417
(dp429
sI418
(dp430
sI419
(dp431
sI420
(dp432
sI421
(dp433
sI422
(dp434
sI423
(dp435
sI424
(dp436
sI425
(dp437
sI426
(dp438
sI427
(dp439
sI428
(dp440
sI429
(dp441
sI430
(dp442
sI431
(dp443
sI432
(dp444
sI433
(dp445
sI434
(dp446
sI435
(dp447
sI436
(dp448
sI437
(dp449
sI438
(dp450
sI439
(dp451
sI440
(dp452
sI441
(dp453
sI442
(dp454
sI443
(dp455
sI444
(dp456
sI445
(dp457
sI446
(dp458
sI447
(dp459
sI448
(dp460
sI449
(dp461
sI450
(dp462
sI451
(dp463
sI452
(dp464
sI453
(dp465
sI454
(dp466
sI455
(dp467
sI456
(dp468
sI457
(dp469
sI458
(dp470
sI459
(dp471
sI460
(dp472
sI461
(dp473
ssS'graph'
p474
(dp475
sS'root_graph'
p476
g4
sS'_adj'
p477
(dp478
I0
(dp479
I1
(dp480
S'weight'
p481
F0.020946136736604302
ssI2
(dp482
g481
F0.06095259427204348
ssI3
(dp483
g481
F0.12412040682661331
sssI1
(dp484
I0
g480
sI2
(dp485
g481
F0.02352013477064479
ssI3
(dp486
g481
F0.07185056148217364
ssI4
(dp487
g481
F0.16289314838265023
sssI2
(dp488
I0
g482
sI1
g485
sI3
(dp489
g481
F0.033161934306462734
ssI4
(dp490
g481
F0.09872647920113864
ssI5
(dp491
g481
F0.20775366550916732
sssI3
(dp492
I0
g483
sI1
g486
sI2
g489
sI4
(dp493
g481
F0.04215705830540505
ssI5
(dp494
g481
F0.12198750004333105
sssI4
(dp495
I1
g487
sI2
g490
sI3
g493
sI5
(dp496
g481
F0.05129638128549705
ssI6
(dp497
g481
F0.1276498385588036
ssI7
(dp498
g481
F0.2121026761693701
sssI5
(dp499
I2
g491
sI3
g494
sI4
g496
sI6
(dp500
g481
F0.04550160717801836
ssI7
(dp501
g481
F0.12083244956443026
sssI6
(dp502
I4
g497
sI5
g500
sI7
(dp503
g481
F0.05985494901463406
ssI8
(dp504
g481
F0.1030934352729539
ssI459
(dp505
g481
F0.10561190666365362
ssI460
(dp506
g481
F0.10334951802443758
sssI7
(dp507
I4
g498
sI5
g501
sI6
g503
sI8
(dp508
g481
F0.01593250875454283
ssI9
(dp509
g481
F0.05200624435065369
ssI458
(dp510
g481
F0.0821678830245927
ssI459
(dp511
g481
F0.042764157012974584
ssI460
(dp512
g481
F0.044633849663054795
ssI461
(dp513
g481
F0.12467687935066418
sssI8
(dp514
I459
(dp515
g481
F0.03135616918273794
ssI6
g504
sI7
g508
sI457
(dp516
g481
F0.05266502867971129
ssI10
(dp517
g481
F0.05928994416897352
ssI11
(dp518
g481
F0.10256026665369548
ssI460
(dp519
g481
F0.04983086318458843
ssI461
(dp520
g481
F0.13786664295643183
ssI9
(dp521
g481
F0.018351367222120527
ssI458
(dp522
g481
F0.04113523866557929
sssI9
(dp523
I459
(dp524
g481
F0.06663001648231641
ssI7
g509
sI8
g521
sI457
(dp525
g481
F0.048091957764551906
ssI10
(dp526
g481
F0.01927851320693838
ssI11
(dp527
g481
F0.05454881029067362
ssI460
(dp528
g481
F0.07219793718651552
ssI456
(dp529
g481
F0.10925972143818638
ssI458
(dp530
g481
F0.05587401563268861
sssI10
(dp531
I459
(dp532
g481
F0.12374548226507787
ssI455
(dp533
g481
F0.06168646469877872
ssI8
g517
sI9
g526
sI458
(dp534
g481
F0.07700811560837172
ssI11
(dp535
g481
F0.020365579932811302
ssI12
(dp536
g481
F0.05426987110364938
ssI13
(dp537
g481
F0.10099299347146862
ssI456
(dp538
g481
F0.05594398115043235
ssI457
(dp539
g481
F0.03516282878307033
sssI11
(dp540
I457
(dp541
g481
F0.03639964575442614
ssI454
(dp542
g481
F0.09348451794237118
ssI455
(dp543
g481
F0.04521146030066574
ssI8
g518
sI9
g527
sI10
g535
sI12
(dp544
g481
F0.01869691938904429
ssI13
(dp545
g481
F0.05561096387791355
ssI456
(dp546
g481
F0.03860154109507863
ssI55
(dp547
g481
F0.19301071165020459
ssI458
(dp548
g481
F0.06915917801656447
sssI12
(dp549
I452
(dp550
g481
F0.06809906939373177
ssI453
(dp551
g481
F0.06855659255109818
ssI454
(dp552
g481
F0.05601905770444118
ssI455
(dp553
g481
F0.028191428859403577
ssI456
(dp554
g481
F0.038276663707109394
ssI457
(dp555
g481
F0.07040195539277362
ssI10
g536
sI11
g544
sI13
(dp556
g481
F0.02274568456044891
ssI14
(dp557
g481
F0.06020394250046663
ssI55
(dp558
g481
F0.1549939741204821
sssI13
(dp559
I450
(dp560
g481
F0.061947758765304506
ssI451
(dp561
g481
F0.05521689387344487
ssI452
(dp562
g481
F0.03325509960302406
ssI453
(dp563
g481
F0.028765322140574288
ssI454
(dp564
g481
F0.03322644665306688
ssI455
(dp565
g481
F0.028553155443981494
ssI456
(dp566
g481
F0.03181182739418729
ssI457
(dp567
g481
F0.08096404857479342
ssI10
g537
sI11
g545
sI12
g556
sI14
(dp568
g481
F0.01604382772578462
ssI15
(dp569
g481
F0.05690609363401259
sssI14
(dp570
I193
(dp571
g481
F0.0459274372434444
ssI450
(dp572
g481
F0.024797249548181872
ssI451
(dp573
g481
F0.022427928505656468
ssI452
(dp574
g481
F0.02061879049748591
ssI453
(dp575
g481
F0.021794546679626457
ssI454
(dp576
g481
F0.04251193183980786
ssI449
(dp577
g481
F0.04926629509611141
ssI455
(dp578
g481
F0.057919532164497294
ssI12
g557
sI13
g568
sI15
(dp579
g481
F0.018528044766754962
ssI16
(dp580
g481
F0.057552772808259475
ssI17
(dp581
g481
F0.08554238919639584
ssI190
(dp582
g481
F0.0323047527195819
ssI191
(dp583
g481
F0.030826643600557604
sssI15
(dp584
I449
(dp585
g481
F0.028368749903111907
ssI450
(dp586
g481
F0.014971247913177572
ssI451
(dp587
g481
F0.0179507102267
ssI452
(dp588
g481
F0.03927200784193925
ssI453
(dp589
g481
F0.040484438373100194
ssI13
g569
sI14
g579
sI16
(dp590
g481
F0.017216578957245036
ssI17
(dp591
g481
F0.03818600180269028
ssI190
(dp592
g481
F0.03563294911888151
sssI16
(dp593
I448
(dp594
g481
F0.03831574251373927
ssI193
(dp595
g481
F0.10211095051288425
ssI450
(dp596
g481
F0.024080179156667617
ssI451
(dp597
g481
F0.03501331101771074
ssI452
(dp598
g481
F0.07722431374250585
ssI449
(dp599
g481
F0.02622228792833825
ssI14
g580
sI15
g590
sI17
(dp600
g481
F0.016554127593913233
ssI18
(dp601
g481
F0.06751542340520134
ssI19
(dp602
g481
F0.05445099649193885
ssI190
(dp603
g481
F0.05624135769825136
sssI17
(dp604
I448
(dp605
g481
F0.0491454560598216
ssI449
(dp606
g481
F0.031142099358198425
ssI450
(dp607
g481
F0.03483993050559774
ssI451
(dp608
g481
F0.04212361080293565
ssI452
(dp609
g481
F0.0895058948421907
ssI14
g581
sI15
g591
sI16
g600
sI18
(dp610
g481
F0.045518200236381395
ssI19
(dp611
g481
F0.0344511835284547
ssI190
(dp612
g481
F0.06055147469145042
ssI191
(dp613
g481
F0.09219875144173786
sssI18
(dp614
I448
(dp615
g481
F0.08355225604739484
ssI449
(dp616
g481
F0.0731421557133463
ssI450
(dp617
g481
F0.0958618358352498
ssI67
(dp618
g481
F0.14425622703734955
ssI68
(dp619
g481
F0.1374097998628003
ssI69
(dp620
g481
F0.11182905119578036
ssI451
(dp621
g481
F0.11005008827623591
ssI16
g601
sI17
g610
sI19
(dp622
g481
F0.02974430075522066
ssI20
(dp623
g481
F0.055673727009685876
ssI21
(dp624
g481
F0.07721278800497039
sssI19
(dp625
I449
(dp626
g481
F0.04360221278271001
ssI450
(dp627
g481
F0.0594992453192715
ssI451
(dp628
g481
F0.06393693363397304
ssI68
(dp629
g481
F0.16800704248119433
ssI69
(dp630
g481
F0.11850480284208827
ssI72
(dp631
g481
F0.14848985704898196
ssI16
g602
sI17
g611
sI18
g622
sI20
(dp632
g481
F0.020118515043568545
ssI21
(dp633
g481
F0.03052456089010461
ssI22
(dp634
g481
F0.05729742153268648
ssI186
(dp635
g481
F0.08175156682685264
ssI187
(dp636
g481
F0.07291452845782768
ssI190
(dp637
g481
F0.07702523978342628
sssI20
(dp638
I449
(dp639
g481
F0.07162085888646888
ssI68
(dp640
g481
F0.1682952543464819
ssI69
(dp641
g481
F0.1190607096852922
ssI72
(dp642
g481
F0.13343609785316699
ssI18
g623
sI19
g632
sI21
(dp643
g481
F0.020545534141703736
ssI22
(dp644
g481
F0.05241940193388256
ssI184
(dp645
g481
F0.10557308841308265
ssI185
(dp646
g481
F0.11927000994332368
ssI186
(dp647
g481
F0.09793974917713488
ssI187
(dp648
g481
F0.09037885090823519
sssI21
(dp649
I192
(dp650
g481
F0.08670182754283219
ssI214
(dp651
g481
F0.1279318649077856
ssI69
(dp652
g481
F0.1405437661406278
ssI449
(dp653
g481
F0.044939976035794985
ssI72
(dp654
g481
F0.1654473187475784
ssI73
(dp655
g481
F0.1792199683452385
ssI183
(dp656
g481
F0.10423398686059987
ssI184
(dp657
g481
F0.04658397630249316
ssI18
g624
sI19
g633
sI20
g643
sI22
(dp658
g481
F0.017167158808688927
ssI23
(dp659
g481
F0.049711271404003374
ssI24
(dp660
g481
F0.1174390270221734
ssI185
(dp661
g481
F0.05334027908819811
ssI186
(dp662
g481
F0.042635766139224596
ssI187
(dp663
g481
F0.04401016799587006
ssI190
(dp664
g481
F0.06007253348611289
ssI191
(dp665
g481
F0.08612827448297268
sssI22
(dp666
I43
(dp667
g481
F0.20912166577625182
ssI44
(dp668
g481
F0.21691684292371063
ssI184
(dp669
g481
F0.03460018534152406
ssI19
g634
sI20
g644
sI21
g658
sI214
(dp670
g481
F0.11150554964526342
ssI23
(dp671
g481
F0.016484137551558864
ssI24
(dp672
g481
F0.06879657434197971
ssI185
(dp673
g481
F0.042771870943119385
ssI186
(dp674
g481
F0.04107338138583033
ssI187
(dp675
g481
F0.03859001837577622
ssI183
(dp676
g481
F0.07066508923648283
sssI23
(dp677
I214
(dp678
g481
F0.11699101739209006
ssI182
(dp679
g481
F0.0719294678855781
ssI39
(dp680
g481
F0.3936243043397074
ssI73
(dp681
g481
F0.19837528148512198
ssI42
(dp682
g481
F0.2466860665831209
ssI43
(dp683
g481
F0.1706188607388651
ssI44
(dp684
g481
F0.17655354534259363
ssI45
(dp685
g481
F0.38355512617030485
ssI76
(dp686
g481
F0.2152909893088804
ssI184
(dp687
g481
F0.03733273363033913
ssI215
(dp688
g481
F0.12014878346860304
ssI21
g659
sI22
g671
sI183
(dp689
g481
F0.04976664895235573
ssI24
(dp690
g481
F0.04059399301187887
ssI25
(dp691
g481
F0.14213618607925166
ssI186
(dp692
g481
F0.06698259380995793
ssI185
(dp693
g481
F0.05578376104220135
sssI24
(dp694
I214
(dp695
g481
F0.08173073939570207
ssI217
(dp696
g481
F0.14606376490797257
ssI182
(dp697
g481
F0.08209230568616281
ssI39
(dp698
g481
F0.3751724820613838
ssI42
(dp699
g481
F0.27812431385385916
ssI43
(dp700
g481
F0.14979473655493866
ssI44
(dp701
g481
F0.12101971898445985
ssI45
(dp702
g481
F0.2515702500760903
ssI46
(dp703
g481
F0.3670987763313133
ssI47
(dp704
g481
F0.40109797825753096
ssI215
(dp705
g481
F0.08709699459902642
ssI21
g660
sI22
g672
sI23
g690
sI184
(dp706
g481
F0.05694029164275799
ssI25
(dp707
g481
F0.05815274184259359
ssI26
(dp708
g481
F0.3166710188005677
ssI27
(dp709
g481
F0.4942529149414704
ssI183
(dp710
g481
F0.04400319193943972
ssI185
(dp711
g481
F0.059963672044405204
ssI181
(dp712
g481
F0.19791225203771082
sssI25
(dp713
I39
(dp714
g481
F0.38451153608596034
ssI40
(dp715
g481
F0.3004535073790143
ssI42
(dp716
g481
F0.3358421398972121
ssI43
(dp717
g481
F0.1898672441376296
ssI44
(dp718
g481
F0.13688399445180433
ssI45
(dp719
g481
F0.22948797058004422
ssI46
(dp720
g481
F0.35521503216567074
ssI47
(dp721
g481
F0.40228795802133405
ssI184
(dp722
g481
F0.1537132972685202
ssI180
(dp723
g481
F0.38921885688242724
ssI181
(dp724
g481
F0.26059007385584637
ssI182
(dp725
g481
F0.15214558443529602
ssI23
g691
sI24
g707
sI217
(dp726
g481
F0.19875897644608717
ssI26
(dp727
g481
F0.1686165670941569
ssI27
(dp728
g481
F0.3276181318379366
ssI28
(dp729
g481
F0.4836332122811837
ssI183
(dp730
g481
F0.11826339308307708
sssI26
(dp731
I36
(dp732
g481
F0.4856916310474372
ssI43
(dp733
g481
F0.4722734687031463
ssI44
(dp734
g481
F0.2932929115526138
ssI45
(dp735
g481
F0.305467411540044
ssI46
(dp736
g481
F0.4945137323803683
ssI182
(dp737
g481
F0.4763810192627691
ssI183
(dp738
g481
F0.4170511314626696
ssI24
g708
sI25
g727
sI27
(dp739
g481
F0.1197713805952972
ssI28
(dp740
g481
F0.26744939001029816
sssI27
(dp741
I36
(dp742
g481
F0.42623958618240804
ssI37
(dp743
g481
F0.509611082517575
ssI39
(dp744
g481
F0.4824960774742791
ssI40
(dp745
g481
F0.45683427267532356
ssI44
(dp746
g481
F0.4170478753089234
ssI24
g709
sI25
g728
sI26
g739
sI28
(dp747
g481
F0.1265399124926002
ssI29
(dp748
g481
F0.30016908079484916
ssI30
(dp749
g481
F0.2530779467551799
ssI31
(dp750
g481
F0.3239451593531057
sssI28
(dp751
I36
(dp752
g481
F0.3432012302896432
ssI37
(dp753
g481
F0.39439567201046927
ssI39
(dp754
g481
F0.4824072404455566
ssI25
g729
sI26
g740
sI27
g747
sI29
(dp755
g481
F0.13249201923778148
ssI30
(dp756
g481
F0.14934044058628576
ssI31
(dp757
g481
F0.20354556244132455
sssI29
(dp758
I32
(dp759
g481
F0.3327764458645197
ssI37
(dp760
g481
F0.4327056284520363
ssI27
g748
sI28
g755
sI30
(dp761
g481
F0.0917270185970094
ssI31
(dp762
g481
F0.20565812630723923
sssI30
(dp763
I32
(dp764
g481
F0.21490954528105494
ssI33
(dp765
g481
F0.42446095265804096
ssI36
(dp766
g481
F0.4471713409269535
ssI27
g749
sI28
g756
sI29
g761
sI31
(dp767
g481
F0.1050661385367858
sssI31
(dp768
I32
(dp769
g481
F0.10800153209586213
ssI33
(dp770
g481
F0.24495150003496727
ssI36
(dp771
g481
F0.2180245519486761
ssI37
(dp772
g481
F0.2999032384310456
ssI27
g750
sI28
g757
sI29
g762
sI30
g767
ssI32
(dp773
I33
(dp774
g481
F0.09819024135283246
ssI34
(dp775
g481
F0.35014568742114716
ssI35
(dp776
g481
F0.5068913801429893
ssI36
(dp777
g481
F0.2405627329301816
ssI37
(dp778
g481
F0.18960221564047097
ssI29
g759
sI30
g764
sI31
g769
ssI33
(dp779
I32
g774
sI34
(dp780
g481
F0.14787450678522887
ssI35
(dp781
g481
F0.223226315788365
ssI36
(dp782
g481
F0.2201222009943336
ssI37
(dp783
g481
F0.2344676238508003
ssI38
(dp784
g481
F0.2948343976244218
ssI30
g765
sI31
g770
ssI34
(dp785
I32
g775
sI33
g780
sI35
(dp786
g481
F0.19200452098226792
ssI36
(dp787
g481
F0.45764252304944114
ssI37
(dp788
g481
F0.29024493617558866
ssI38
(dp789
g481
F0.24802752243541187
ssI39
(dp790
g481
F0.31190686623580555
sssI35
(dp791
I32
g776
sI33
g781
sI34
g786
sI36
(dp792
g481
F0.22113836173727033
ssI37
(dp793
g481
F0.4054305678130399
ssI38
(dp794
g481
F0.3266707962711447
ssI39
(dp795
g481
F0.34532464929378776
ssI40
(dp796
g481
F0.4812510513014239
ssI80
(dp797
g481
F0.48471192629029325
sssI36
(dp798
I32
g777
sI33
g782
sI34
g787
sI35
g792
sI37
(dp799
g481
F0.14989686561354534
ssI38
(dp800
g481
F0.24650560280139167
ssI39
(dp801
g481
F0.2599284200986821
ssI40
(dp802
g481
F0.33203204991922863
ssI41
(dp803
g481
F0.4632701398268343
ssI26
g732
sI27
g742
sI28
g752
sI30
g766
sI31
g771
ssI37
(dp804
I32
g778
sI33
g783
sI34
g788
sI35
g793
sI36
g799
sI38
(dp805
g481
F0.060795813558119235
ssI39
(dp806
g481
F0.1452099666763313
ssI40
(dp807
g481
F0.23819518164200307
ssI41
(dp808
g481
F0.2941084282247964
ssI42
(dp809
g481
F0.3259694914520352
ssI27
g743
sI28
g753
sI29
g760
sI31
g772
ssI38
(dp810
I33
g784
sI34
g789
sI35
g794
sI36
g800
sI37
g805
sI39
(dp811
g481
F0.09686919162549307
ssI40
(dp812
g481
F0.21166005831035228
ssI41
(dp813
g481
F0.19314634480927842
ssI42
(dp814
g481
F0.17394350757180627
ssI43
(dp815
g481
F0.3224134676957579
ssI80
(dp816
g481
F0.4404268462384436
ssI83
(dp817
g481
F0.4901627215114855
sssI39
(dp818
I34
g790
sI35
g795
sI36
g801
sI37
g806
sI38
g811
sI40
(dp819
g481
F0.08304326210983647
ssI41
(dp820
g481
F0.18127892387361103
ssI42
(dp821
g481
F0.21774580522799097
ssI43
(dp822
g481
F0.24814248555815688
ssI44
(dp823
g481
F0.2977926874764714
ssI23
g680
sI24
g698
sI25
g714
sI27
g744
sI28
g754
ssI40
(dp824
I35
g796
sI36
g802
sI37
g807
sI38
g812
sI39
g819
sI41
(dp825
g481
F0.07760570384254016
ssI42
(dp826
g481
F0.19799856330350604
ssI43
(dp827
g481
F0.21802003031039463
ssI44
(dp828
g481
F0.25010814504656254
ssI45
(dp829
g481
F0.4891099010007448
ssI25
g715
sI27
g745
ssI41
(dp830
I36
g803
sI37
g808
sI38
g813
sI39
g820
sI40
g825
sI42
(dp831
g481
F0.07119534089896887
ssI43
(dp832
g481
F0.16589562441048752
ssI44
(dp833
g481
F0.21174027194530637
sssI42
(dp834
I37
g809
sI38
g814
sI39
g821
sI40
g826
sI41
g831
sI43
(dp835
g481
F0.09245428189777934
ssI44
(dp836
g481
F0.17187063447221257
ssI23
g682
sI24
g699
sI25
g716
ssI43
(dp837
I182
(dp838
g481
F0.16564918266258524
ssI38
g815
sI39
g822
sI40
g827
sI41
g832
sI42
g835
sI183
(dp839
g481
F0.18884261155880858
ssI44
(dp840
g481
F0.06997043531619032
ssI45
(dp841
g481
F0.2773992792779083
ssI46
(dp842
g481
F0.3838388295643791
ssI22
g667
sI23
g683
sI24
g700
sI25
g717
sI26
g733
ssI44
(dp843
I39
g823
sI40
g828
sI41
g833
sI42
g836
sI43
g840
sI45
(dp844
g481
F0.13702610077881333
ssI46
(dp845
g481
F0.30324322402417686
ssI47
(dp846
g481
F0.3708138948386345
ssI22
g668
sI23
g684
sI24
g701
sI25
g718
sI26
g734
sI27
g746
ssI45
(dp847
I40
g829
sI43
g841
sI44
g844
sI46
(dp848
g481
F0.08754527366245718
ssI47
(dp849
g481
F0.0999590149392063
ssI23
g685
sI24
g702
sI25
g719
sI26
g735
ssI46
(dp850
I43
g842
sI44
g845
sI45
g848
sI47
(dp851
g481
F0.04628009314862726
ssI48
(dp852
g481
F0.1262311607443728
ssI49
(dp853
g481
F0.2315182393088468
ssI183
(dp854
g481
F0.41539222888398963
ssI24
g703
sI25
g720
sI26
g736
ssI47
(dp855
I44
g846
sI45
g849
sI46
g851
sI48
(dp856
g481
F0.04898388014528674
ssI49
(dp857
g481
F0.12999665444194852
ssI50
(dp858
g481
F0.15033291822241643
ssI24
g704
sI25
g721
ssI48
(dp859
I49
(dp860
g481
F0.052682369318145024
ssI50
(dp861
g481
F0.08834424444112669
ssI51
(dp862
g481
F0.12632949104322938
ssI46
g852
sI47
g856
ssI49
(dp863
I46
g853
sI47
g857
sI48
g860
sI50
(dp864
g481
F0.11166148912027131
ssI51
(dp865
g481
F0.19616394667367176
ssI52
(dp866
g481
F0.2429465421987887
sssI50
(dp867
I47
g858
sI48
g861
sI49
g864
sI51
(dp868
g481
F0.0649268691382484
ssI52
(dp869
g481
F0.14671078713281818
ssI213
(dp870
g481
F0.37702156216802296
ssI212
(dp871
g481
F0.3229167460317635
sssI51
(dp872
I48
g862
sI49
g865
sI50
g868
sI211
(dp873
g481
F0.2620562870141457
ssI52
(dp874
g481
F0.05616802980510447
ssI53
(dp875
g481
F0.13266195160177502
ssI212
(dp876
g481
F0.2653643525905691
ssI213
(dp877
g481
F0.3257208074654325
sssI52
(dp878
I211
(dp879
g481
F0.1363487650466313
ssI50
g869
sI49
g866
sI210
(dp880
g481
F0.10907942733094195
ssI51
g874
sI212
(dp881
g481
F0.14264798757495017
ssI53
(dp882
g481
F0.040230615671547995
ssI54
(dp883
g481
F0.0816838469226889
ssI213
(dp884
g481
F0.1963018215320399
sssI53
(dp885
I211
(dp886
g481
F0.1258428708407549
ssI209
(dp887
g481
F0.1389685349341807
ssI210
(dp888
g481
F0.10559057631215248
ssI51
g875
sI52
g882
sI54
(dp889
g481
F0.04165173480806177
ssI55
(dp890
g481
F0.08792899414530969
ssI212
(dp891
g481
F0.13484778428784874
sssI54
(dp892
I194
(dp893
g481
F0.11555973747009819
ssI196
(dp894
g481
F0.13961139237567596
ssI208
(dp895
g481
F0.10108860925067718
ssI209
(dp896
g481
F0.07263996993169058
ssI210
(dp897
g481
F0.05680426368539604
ssI211
(dp898
g481
F0.08367862152373727
ssI52
g883
sI53
g889
sI55
(dp899
g481
F0.03426568724594502
ssI56
(dp900
g481
F0.12609091816234327
sssI55
(dp901
I11
g547
sI12
g558
sI207
(dp902
g481
F0.1019961613253452
ssI208
(dp903
g481
F0.09741306561778104
ssI209
(dp904
g481
F0.06006563435698233
ssI210
(dp905
g481
F0.055520922047468016
ssI211
(dp906
g481
F0.07376804504169081
ssI53
g890
sI54
g899
sI56
(dp907
g481
F0.057999999781188444
ssI57
(dp908
g481
F0.12231360259543769
ssI58
(dp909
g481
F0.06980801615108773
sssI56
(dp910
I207
(dp911
g481
F0.12658009442883647
ssI208
(dp912
g481
F0.20106307696013842
ssI209
(dp913
g481
F0.13783578801913826
ssI210
(dp914
g481
F0.13923664456289517
ssI54
g900
sI55
g907
sI57
(dp915
g481
F0.026774970866071234
ssI58
(dp916
g481
F0.052452818702357275
ssI59
(dp917
g481
F0.1507029086242085
sssI57
(dp918
I207
(dp919
g481
F0.12988214872996018
ssI208
(dp920
g481
F0.2654649258426457
ssI209
(dp921
g481
F0.1894798852330929
ssI55
g908
sI56
g915
sI58
(dp922
g481
F0.04561146333736475
ssI59
(dp923
g481
F0.14243408083142559
sssI58
(dp924
I206
(dp925
g481
F0.0852938764575082
ssI207
(dp926
g481
F0.07024886561683172
ssI208
(dp927
g481
F0.15107955254697772
ssI209
(dp928
g481
F0.09345716208971569
ssI55
g909
sI56
g916
sI57
g922
sI59
(dp929
g481
F0.06045851746753704
ssI60
(dp930
g481
F0.0628292817310887
sssI59
(dp931
I205
(dp932
g481
F0.1187074092578749
ssI206
(dp933
g481
F0.08053098393464714
ssI207
(dp934
g481
F0.07714659807319461
ssI208
(dp935
g481
F0.15038161887279447
ssI209
(dp936
g481
F0.1258633532030926
ssI56
g917
sI57
g923
sI58
g929
sI60
(dp937
g481
F0.04345759086713273
ssI61
(dp938
g481
F0.13425242593099324
sssI60
(dp939
I193
(dp940
g481
F0.07565179563257417
ssI195
(dp941
g481
F0.09148003410427001
ssI204
(dp942
g481
F0.13365633176454117
ssI205
(dp943
g481
F0.04846051839622779
ssI206
(dp944
g481
F0.049793712399225636
ssI207
(dp945
g481
F0.07643147252003878
ssI208
(dp946
g481
F0.17573265557231138
ssI209
(dp947
g481
F0.11473231504557063
ssI58
g930
sI59
g937
sI61
(dp948
g481
F0.03579713882544531
ssI62
(dp949
g481
F0.07884122888847382
sssI61
(dp950
I448
(dp951
g481
F0.07131567364475849
ssI195
(dp952
g481
F0.1579401230453375
ssI202
(dp953
g481
F0.17604876194047156
ssI203
(dp954
g481
F0.11320059597661204
ssI204
(dp955
g481
F0.05930297281992583
ssI205
(dp956
g481
F0.031064010025807165
ssI206
(dp957
g481
F0.08427631975514578
ssI207
(dp958
g481
F0.15327465681892172
ssI59
g938
sI60
g948
sI62
(dp959
g481
F0.019060026562675404
ssI63
(dp960
g481
F0.08315563698320509
sssI62
(dp961
I64
(dp962
g481
F0.09825645803758715
ssI65
(dp963
g481
F0.1828731949336192
ssI66
(dp964
g481
F0.1516420793333217
ssI67
(dp965
g481
F0.14840570964245114
ssI193
(dp966
g481
F0.15153103289321876
ssI200
(dp967
g481
F0.4046448376750154
ssI201
(dp968
g481
F0.37969521467254724
ssI202
(dp969
g481
F0.13131159268841933
ssI203
(dp970
g481
F0.07706850216345877
ssI204
(dp971
g481
F0.04841797561147454
ssI194
(dp972
g481
F0.17760395577906116
ssI206
(dp973
g481
F0.12368160325284963
ssI205
(dp974
g481
F0.05188683159756881
ssI195
(dp975
g481
F0.19656115899700255
ssI448
(dp976
g481
F0.07578308196233258
ssI445
(dp977
g481
F0.08828532165063697
ssI447
(dp978
g481
F0.06755865893272105
ssI60
g949
sI61
g959
sI446
(dp979
g481
F0.09738921566590852
ssI63
(dp980
g481
F0.036707713372603784
sssI63
(dp981
I64
(dp982
g481
F0.03051405263564019
ssI65
(dp983
g481
F0.06786320988617806
ssI66
(dp984
g481
F0.062097680190016415
ssI67
(dp985
g481
F0.08115783174250711
ssI201
(dp986
g481
F0.3686127072448728
ssI202
(dp987
g481
F0.10065880572242113
ssI203
(dp988
g481
F0.04843424175664061
ssI204
(dp989
g481
F0.0710453292862272
ssI205
(dp990
g481
F0.13147833344170368
ssI445
(dp991
g481
F0.11382903171183294
ssI242
(dp992
g481
F0.1704815835587045
ssI448
(dp993
g481
F0.1454845808516914
ssI446
(dp994
g481
F0.19122403881463163
ssI61
g960
sI62
g980
sI447
(dp995
g481
F0.15326750062480665
sssI64
(dp996
I438
(dp997
g481
F0.18139117975425606
ssI441
(dp998
g481
F0.09458185580031367
ssI442
(dp999
g481
F0.292982710142953
ssI443
(dp1000
g481
F0.2238092437960476
ssI444
(dp1001
g481
F0.13284076224195418
ssI445
(dp1002
g481
F0.15300963389948763
ssI446
(dp1003
g481
F0.25769917260631636
ssI63
g982
sI448
(dp1004
g481
F0.21629203847860576
ssI65
(dp1005
g481
F0.027273749359028394
ssI66
(dp1006
g481
F0.03887000847541075
ssI67
(dp1007
g481
F0.05697745648755755
ssI68
(dp1008
g481
F0.09953944125112803
ssI69
(dp1009
g481
F0.1096106302620503
ssI70
(dp1010
g481
F0.12049634049246104
ssI201
(dp1011
g481
F0.38398933088719356
ssI202
(dp1012
g481
F0.09238746768193828
ssI203
(dp1013
g481
F0.06300764752260243
ssI204
(dp1014
g481
F0.1324357444395572
ssI240
(dp1015
g481
F0.21939926219596867
ssI241
(dp1016
g481
F0.19725927411099553
ssI242
(dp1017
g481
F0.12279540795115344
ssI62
g962
sI447
(dp1018
g481
F0.2246582684663386
sssI65
(dp1019
I64
g1005
sI66
(dp1020
g481
F0.023551623222440768
ssI67
(dp1021
g481
F0.06752964373376068
ssI68
(dp1022
g481
F0.10729492695486935
ssI70
(dp1023
g481
F0.11208791447278366
ssI202
(dp1024
g481
F0.1540419171995197
ssI203
(dp1025
g481
F0.108848456386226
ssI241
(dp1026
g481
F0.1377080682838131
ssI242
(dp1027
g481
F0.07425436270591892
ssI437
(dp1028
g481
F0.10093912295211707
ssI438
(dp1029
g481
F0.11190137683610794
ssI441
(dp1030
g481
F0.07883329613781925
ssI445
(dp1031
g481
F0.23945394688338392
ssI62
g963
sI63
g983
ssI66
(dp1032
I64
g1006
sI65
g1020
sI67
(dp1033
g481
F0.03477574598594377
ssI68
(dp1034
g481
F0.07704699949658003
ssI69
(dp1035
g481
F0.09338884117115231
ssI70
(dp1036
g481
F0.09849966279081473
ssI203
(dp1037
g481
F0.12663211687589143
ssI242
(dp1038
g481
F0.12227554508190829
ssI62
g964
sI63
g984
ssI67
(dp1039
I64
g1007
sI65
g1021
sI66
g1033
sI68
(dp1040
g481
F0.05573806961029797
ssI69
(dp1041
g481
F0.059116476900936056
ssI70
(dp1042
g481
F0.09014296155568641
ssI71
(dp1043
g481
F0.12392358257879606
ssI72
(dp1044
g481
F0.11797831208728826
ssI449
(dp1045
g481
F0.21389910059835265
ssI18
g618
sI448
(dp1046
g481
F0.20125316270629148
ssI441
(dp1047
g481
F0.1313489081185069
ssI447
(dp1048
g481
F0.23815191894484852
ssI444
(dp1049
g481
F0.1727166242731421
ssI445
(dp1050
g481
F0.21475932834734884
ssI62
g965
sI63
g985
ssI68
(dp1051
I64
g1008
sI65
g1022
sI66
g1034
sI67
g1040
sI69
(dp1052
g481
F0.028581552135210755
ssI70
(dp1053
g481
F0.06622088186319992
ssI71
(dp1054
g481
F0.06507959156204211
ssI72
(dp1055
g481
F0.06686144306638805
ssI73
(dp1056
g481
F0.1479178357323481
ssI18
g619
sI19
g629
sI20
g640
sI448
(dp1057
g481
F0.23209361837709025
ssI449
(dp1058
g481
F0.2303840080579778
sssI69
(dp1059
I64
g1009
sI448
(dp1060
g481
F0.16206867220750337
ssI66
g1035
sI67
g1041
sI68
g1052
sI70
(dp1061
g481
F0.045888933501353306
ssI71
(dp1062
g481
F0.07501174843271091
ssI72
(dp1063
g481
F0.04907696621945504
ssI73
(dp1064
g481
F0.09901434961709184
ssI74
(dp1065
g481
F0.14895656461751408
ssI440
(dp1066
g481
F0.21184642311077972
ssI18
g620
sI19
g630
sI20
g641
sI21
g652
sI184
(dp1067
g481
F0.22533222819019383
ssI441
(dp1068
g481
F0.15200068886047813
ssI449
(dp1069
g481
F0.15943907364862675
ssI444
(dp1070
g481
F0.1425509265310388
ssI447
(dp1071
g481
F0.1907301901780368
sssI70
(dp1072
I64
g1010
sI65
g1023
sI66
g1036
sI67
g1042
sI68
g1053
sI69
g1061
sI71
(dp1073
g481
F0.03130592230728196
ssI72
(dp1074
g481
F0.06111066678368645
ssI73
(dp1075
g481
F0.1041312568111002
ssI74
(dp1076
g481
F0.1052704769613907
ssI75
(dp1077
g481
F0.138873337005287
ssI436
(dp1078
g481
F0.24391854666332705
ssI437
(dp1079
g481
F0.1468051464508933
ssI438
(dp1080
g481
F0.188504083341358
ssI439
(dp1081
g481
F0.24100604570164932
ssI440
(dp1082
g481
F0.13501961834050766
ssI441
(dp1083
g481
F0.09531342826274135
ssI443
(dp1084
g481
F0.32781343138948005
ssI444
(dp1085
g481
F0.20979846510507627
sssI71
(dp1086
I67
g1043
sI68
g1054
sI69
g1062
sI70
g1073
sI72
(dp1087
g481
F0.050098853324380806
ssI73
(dp1088
g481
F0.11476721186097236
ssI74
(dp1089
g481
F0.07898738334316185
ssI75
(dp1090
g481
F0.10746501086743498
ssI437
(dp1091
g481
F0.15946731666722008
ssI440
(dp1092
g481
F0.15175161191821326
sssI72
(dp1093
I67
g1044
sI68
g1055
sI69
g1063
sI70
g1074
sI71
g1087
sI73
(dp1094
g481
F0.04433143074249922
ssI74
(dp1095
g481
F0.08843585837097484
ssI75
(dp1096
g481
F0.08859729381438906
ssI76
(dp1097
g481
F0.11623565264589164
ssI77
(dp1098
g481
F0.12581975263873893
ssI19
g631
sI20
g642
sI21
g654
ssI73
(dp1099
I68
g1056
sI69
g1064
sI70
g1075
sI71
g1088
sI72
g1094
sI74
(dp1100
g481
F0.060986170711471756
ssI75
(dp1101
g481
F0.07592152348587985
ssI76
(dp1102
g481
F0.08427742213179527
ssI77
(dp1103
g481
F0.10837797243454772
ssI78
(dp1104
g481
F0.16994869973557594
ssI440
(dp1105
g481
F0.2507039735755257
ssI21
g655
sI23
g681
sI184
(dp1106
g481
F0.23595531975569073
ssI437
(dp1107
g481
F0.25885154994495724
sssI74
(dp1108
I69
g1065
sI70
g1076
sI71
g1089
sI72
g1095
sI73
g1100
sI75
(dp1109
g481
F0.032914028734544236
ssI76
(dp1110
g481
F0.0882509462007986
ssI77
(dp1111
g481
F0.0966255295707522
ssI78
(dp1112
g481
F0.11013958681994808
ssI79
(dp1113
g481
F0.15064338220157958
ssI436
(dp1114
g481
F0.2568512299303655
ssI437
(dp1115
g481
F0.1875615158951451
ssI440
(dp1116
g481
F0.1920345655847826
ssI389
(dp1117
g481
F0.23388914545278391
sssI75
(dp1118
I389
(dp1119
g481
F0.2851746709739396
ssI70
g1077
sI71
g1090
sI72
g1096
sI73
g1101
sI74
g1109
sI76
(dp1120
g481
F0.04100351707192521
ssI77
(dp1121
g481
F0.08796251242252023
ssI78
(dp1122
g481
F0.10085275155426164
ssI79
(dp1123
g481
F0.10925686253905335
ssI80
(dp1124
g481
F0.17580975413938565
sssI76
(dp1125
I72
g1097
sI73
g1102
sI74
g1110
sI75
g1120
sI77
(dp1126
g481
F0.06014595835961931
ssI78
(dp1127
g481
F0.13753878097511088
ssI79
(dp1128
g481
F0.10433077311702703
ssI80
(dp1129
g481
F0.13322360754979148
ssI81
(dp1130
g481
F0.2765363599129001
ssI23
g686
ssI77
(dp1131
I389
(dp1132
g481
F0.24097669271541508
ssI72
g1098
sI73
g1103
sI74
g1111
sI75
g1121
sI76
g1126
sI78
(dp1133
g481
F0.048740970685885884
ssI79
(dp1134
g481
F0.06366451100415828
ssI80
(dp1135
g481
F0.0666102661431674
ssI81
(dp1136
g481
F0.12426853975307131
ssI82
(dp1137
g481
F0.14348123029195156
ssI220
(dp1138
g481
F0.25604458271958175
ssI221
(dp1139
g481
F0.38831655519589764
sssI78
(dp1140
I389
(dp1141
g481
F0.14500812096233312
ssI73
g1104
sI74
g1112
sI75
g1122
sI76
g1127
sI77
g1133
sI79
(dp1142
g481
F0.03645985460001389
ssI80
(dp1143
g481
F0.07876667641449348
ssI81
(dp1144
g481
F0.06204599154250306
ssI82
(dp1145
g481
F0.05513406757296713
ssI83
(dp1146
g481
F0.10561011807633124
ssI85
(dp1147
g481
F0.1478839740344378
sssI79
(dp1148
I74
g1113
sI75
g1123
sI76
g1128
sI77
g1134
sI78
g1142
sI80
(dp1149
g481
F0.03940994957848239
ssI81
(dp1150
g481
F0.10137188344183759
ssI82
(dp1151
g481
F0.06434996571376504
ssI83
(dp1152
g481
F0.08644360347368582
ssI84
(dp1153
g481
F0.16260747085802593
sssI80
(dp1154
I35
g797
sI38
g816
sI75
g1124
sI76
g1129
sI77
g1135
sI78
g1143
sI79
g1149
sI81
(dp1155
g481
F0.07586802221341134
ssI82
(dp1156
g481
F0.08633384756739686
ssI83
(dp1157
g481
F0.07475183619370464
ssI84
(dp1158
g481
F0.12094007138200565
ssI85
(dp1159
g481
F0.17768176831702112
ssI86
(dp1160
g481
F0.19749075614817363
ssI220
(dp1161
g481
F0.24641103630975253
sssI81
(dp1162
I76
g1130
sI77
g1136
sI78
g1144
sI79
g1150
sI80
g1155
sI82
(dp1163
g481
F0.03206863031129938
ssI83
(dp1164
g481
F0.061906287010068665
ssI84
(dp1165
g481
F0.08607350976935164
ssI85
(dp1166
g481
F0.07953290997230861
ssI86
(dp1167
g481
F0.10190092072510958
ssI87
(dp1168
g481
F0.1156566224961516
ssI220
(dp1169
g481
F0.3163087461142275
sssI82
(dp1170
I172
(dp1171
g481
F0.16927715198138465
ssI77
g1137
sI78
g1145
sI79
g1151
sI80
g1156
sI81
g1163
sI83
(dp1172
g481
F0.03493800500211335
ssI84
(dp1173
g481
F0.09719048818465023
ssI85
(dp1174
g481
F0.09471309571200716
ssI86
(dp1175
g481
F0.1027356240405893
ssI87
(dp1176
g481
F0.11810393894316185
sssI83
(dp1177
I38
g817
sI172
(dp1178
g481
F0.199704520721308
ssI173
(dp1179
g481
F0.2719114012437185
ssI78
g1146
sI79
g1152
sI80
g1157
sI81
g1164
sI82
g1172
sI84
(dp1180
g481
F0.06277692059115378
ssI85
(dp1181
g481
F0.10438482666147565
ssI86
(dp1182
g481
F0.12866554654747767
sssI84
(dp1183
I172
(dp1184
g481
F0.18166662089778463
ssI173
(dp1185
g481
F0.26213034359836757
ssI174
(dp1186
g481
F0.41270601513535204
ssI79
g1153
sI80
g1158
sI81
g1165
sI82
g1173
sI83
g1180
sI85
(dp1187
g481
F0.042043726778333526
ssI86
(dp1188
g481
F0.09350277740880063
ssI87
(dp1189
g481
F0.13209428488955205
ssI345
(dp1190
g481
F0.46957304264016586
sssI85
(dp1191
I396
(dp1192
g481
F0.11094323662608409
ssI172
(dp1193
g481
F0.1113264491768847
ssI173
(dp1194
g481
F0.19384830172102444
ssI78
g1147
sI80
g1159
sI81
g1166
sI82
g1174
sI83
g1181
sI84
g1187
sI174
(dp1195
g481
F0.3688417788646248
ssI86
(dp1196
g481
F0.03147130985530512
ssI87
(dp1197
g481
F0.052024578170587206
ssI88
(dp1198
g481
F0.08053324505042961
ssI345
(dp1199
g481
F0.3672944543433397
ssI346
(dp1200
g481
F0.29195426843920497
sssI86
(dp1201
I395
(dp1202
g481
F0.11521108258406007
ssI396
(dp1203
g481
F0.11768821661259402
ssI170
(dp1204
g481
F0.050394559167540716
ssI171
(dp1205
g481
F0.06989411228127326
ssI172
(dp1206
g481
F0.07182052488523584
ssI173
(dp1207
g481
F0.1449634709440523
ssI174
(dp1208
g481
F0.3730767185311396
ssI80
g1160
sI81
g1167
sI82
g1175
sI83
g1182
sI84
g1188
sI85
g1196
sI87
(dp1209
g481
F0.03281726120423142
ssI88
(dp1210
g481
F0.05812380875950625
ssI89
(dp1211
g481
F0.08459450312665921
ssI90
(dp1212
g481
F0.10382405572765391
ssI394
(dp1213
g481
F0.11943253827196611
sssI87
(dp1214
I384
(dp1215
g481
F0.09959481673759954
ssI385
(dp1216
g481
F0.095752550060318
ssI395
(dp1217
g481
F0.04194806084593405
ssI169
(dp1218
g481
F0.048337962541587794
ssI170
(dp1219
g481
F0.05331167351346003
ssI171
(dp1220
g481
F0.09419033511017148
ssI172
(dp1221
g481
F0.08605395630994941
ssI173
(dp1222
g481
F0.19815471262806333
ssI397
(dp1223
g481
F0.08639635951990397
ssI396
(dp1224
g481
F0.04914107357124424
ssI81
g1168
sI82
g1176
sI84
g1189
sI85
g1197
sI86
g1209
sI393
(dp1225
g481
F0.07135036800854094
ssI88
(dp1226
g481
F0.01690506061567513
ssI89
(dp1227
g481
F0.024432786488153457
ssI90
(dp1228
g481
F0.04640227217201445
ssI394
(dp1229
g481
F0.04921006869177641
ssI383
(dp1230
g481
F0.12112332417611447
sssI88
(dp1231
I395
(dp1232
g481
F0.05650142188083277
ssI168
(dp1233
g481
F0.09416636542514183
ssI169
(dp1234
g481
F0.039739722937631713
ssI170
(dp1235
g481
F0.04154367969040196
ssI171
(dp1236
g481
F0.06446197580877606
ssI172
(dp1237
g481
F0.05614943072149654
ssI173
(dp1238
g481
F0.16314508646025566
ssI397
(dp1239
g481
F0.08987471808801237
ssI396
(dp1240
g481
F0.06059276364127945
ssI85
g1198
sI86
g1210
sI87
g1226
sI89
(dp1241
g481
F0.02289392803260324
ssI90
(dp1242
g481
F0.06569306971692121
ssI394
(dp1243
g481
F0.07058775370581813
sssI89
(dp1244
I384
(dp1245
g481
F0.07448454266368001
ssI393
(dp1246
g481
F0.044886236627027766
ssI395
(dp1247
g481
F0.026552575655276852
ssI167
(dp1248
g481
F0.07481703274350063
ssI168
(dp1249
g481
F0.044974328377417
ssI169
(dp1250
g481
F0.0241451462936382
ssI170
(dp1251
g481
F0.06214759556697239
ssI171
(dp1252
g481
F0.1311822569022606
ssI172
(dp1253
g481
F0.13680136470434429
ssI397
(dp1254
g481
F0.08638531242490319
ssI396
(dp1255
g481
F0.047208828374904935
ssI86
g1211
sI87
g1227
sI88
g1241
sI90
(dp1256
g481
F0.017544451014147807
ssI91
(dp1257
g481
F0.0445171211996587
ssI394
(dp1258
g481
F0.030664865884384412
sssI90
(dp1259
I384
(dp1260
g481
F0.07477675811678942
ssI385
(dp1261
g481
F0.06785128122404276
ssI387
(dp1262
g481
F0.04428395435545083
ssI166
(dp1263
g481
F0.10942894293426818
ssI167
(dp1264
g481
F0.05593635404094954
ssI168
(dp1265
g481
F0.0354348825187568
ssI169
(dp1266
g481
F0.04311924609431928
ssI170
(dp1267
g481
F0.09233876541591028
ssI395
(dp1268
g481
F0.03255035208840267
ssI396
(dp1269
g481
F0.06331233940854629
ssI392
(dp1270
g481
F0.041575243750472224
ssI86
g1212
sI87
g1228
sI88
g1242
sI89
g1256
sI91
(dp1271
g481
F0.024240040091428806
ssI92
(dp1272
g481
F0.051497489376063084
ssI394
(dp1273
g481
F0.023543201795180886
ssI393
(dp1274
g481
F0.028913663150939385
sssI91
(dp1275
I386
(dp1276
g481
F0.061511186755214414
ssI387
(dp1277
g481
F0.05398729794695502
ssI165
(dp1278
g481
F0.15648788448073003
ssI166
(dp1279
g481
F0.08526875595781276
ssI167
(dp1280
g481
F0.03802829196957018
ssI168
(dp1281
g481
F0.04822011288483552
ssI169
(dp1282
g481
F0.06807239923229405
ssI394
(dp1283
g481
F0.04125064128856427
ssI391
(dp1284
g481
F0.06879670204115723
ssI395
(dp1285
g481
F0.05550976977480958
ssI392
(dp1286
g481
F0.0402611454582905
ssI393
(dp1287
g481
F0.03479413689836497
ssI89
g1257
sI90
g1271
sI92
(dp1288
g481
F0.025627469959410162
ssI93
(dp1289
g481
F0.07946837326645392
ssI94
(dp1290
g481
F0.1844452826628798
sssI92
(dp1291
I387
(dp1292
g481
F0.07164128471897514
ssI164
(dp1293
g481
F0.299926569223469
ssI165
(dp1294
g481
F0.164491937089733
ssI166
(dp1295
g481
F0.10916139329902369
ssI167
(dp1296
g481
F0.06914557321528299
ssI168
(dp1297
g481
F0.0798521052182931
ssI393
(dp1298
g481
F0.0555232533292209
ssI394
(dp1299
g481
F0.06793465725813808
ssI391
(dp1300
g481
F0.07120212523243245
ssI392
(dp1301
g481
F0.05465336959580265
ssI90
g1272
sI91
g1288
sI93
(dp1302
g481
F0.04913575200379219
ssI94
(dp1303
g481
F0.13012542964030843
ssI390
(dp1304
g481
F0.08787465136476888
sssI93
(dp1305
I96
(dp1306
g481
F0.33771600504272514
ssI164
(dp1307
g481
F0.31705396484348664
ssI165
(dp1308
g481
F0.20587823290679333
ssI166
(dp1309
g481
F0.1432623990323022
ssI167
(dp1310
g481
F0.1250762669976066
ssI392
(dp1311
g481
F0.11260504163689798
ssI393
(dp1312
g481
F0.11799071980364051
ssI391
(dp1313
g481
F0.12546121854528436
ssI91
g1289
sI92
g1302
sI94
(dp1314
g481
F0.08975460903510782
ssI95
(dp1315
g481
F0.2296695136493863
sssI94
(dp1316
I96
(dp1317
g481
F0.3293177132044427
ssI164
(dp1318
g481
F0.3609757305309179
ssI165
(dp1319
g481
F0.26488408771071625
ssI166
(dp1320
g481
F0.22024588657060257
ssI91
g1290
sI92
g1303
sI93
g1314
sI95
(dp1321
g481
F0.11870089890697066
sssI95
(dp1322
I96
(dp1323
g481
F0.1839453844451019
ssI97
(dp1324
g481
F0.41659202799224476
ssI163
(dp1325
g481
F0.41594139721038237
ssI164
(dp1326
g481
F0.34308253133588174
ssI165
(dp1327
g481
F0.37949962158030653
ssI93
g1315
sI94
g1321
ssI96
(dp1328
I97
(dp1329
g481
F0.09635101306958231
ssI98
(dp1330
g481
F0.4128299408388093
ssI163
(dp1331
g481
F0.4422161366092328
ssI164
(dp1332
g481
F0.4141710495579371
ssI93
g1306
sI94
g1317
sI95
g1323
ssI97
(dp1333
I96
g1329
sI98
(dp1334
g481
F0.20771903643714815
ssI136
(dp1335
g481
F0.4228547677967225
ssI137
(dp1336
g481
F0.3212251232962571
ssI138
(dp1337
g481
F0.4190945582139174
ssI139
(dp1338
g481
F0.4677654779695557
ssI95
g1324
ssI98
(dp1339
I96
g1330
sI97
g1334
sI99
(dp1340
g481
F0.3034744305998047
ssI135
(dp1341
g481
F0.45910098413407824
ssI136
(dp1342
g481
F0.30832301127612594
ssI137
(dp1343
g481
F0.4333696524959992
sssI99
(dp1344
I98
g1340
sI100
(dp1345
g481
F0.1558469061415012
ssI101
(dp1346
g481
F0.3444288642074831
ssI135
(dp1347
g481
F0.4895592930213614
sssI100
(dp1348
I99
g1345
sI132
(dp1349
g481
F0.3582602529167899
ssI133
(dp1350
g481
F0.38909949390761595
ssI102
(dp1351
g481
F0.1568711068740012
ssI103
(dp1352
g481
F0.1713793868015448
ssI158
(dp1353
g481
F0.4590353302973048
ssI159
(dp1354
g481
F0.43616964767817995
ssI134
(dp1355
g481
F0.27988218938914755
ssI101
(dp1356
g481
F0.09964505898194104
sssI101
(dp1357
I99
g1346
sI132
(dp1358
g481
F0.35652493881411323
ssI133
(dp1359
g481
F0.3351095423686664
ssI102
(dp1360
g481
F0.06317982290244371
ssI103
(dp1361
g481
F0.16002646891860714
ssI135
(dp1362
g481
F0.3780218438169939
ssI100
g1356
sI134
(dp1363
g481
F0.28708390023177544
sssI102
(dp1364
I129
(dp1365
g481
F0.12165699365087453
ssI131
(dp1366
g481
F0.219348788867475
ssI100
g1351
sI101
g1360
sI134
(dp1367
g481
F0.2550505720976542
ssI103
(dp1368
g481
F0.03891871579795283
ssI104
(dp1369
g481
F0.09473865116803616
ssI106
(dp1370
g481
F0.07497307209130039
ssI108
(dp1371
g481
F0.11235831581370138
ssI109
(dp1372
g481
F0.1718275999677348
ssI110
(dp1373
g481
F0.29525487349208396
ssI132
(dp1374
g481
F0.16670812329596854
ssI133
(dp1375
g481
F0.19222460416188542
sssI103
(dp1376
I129
(dp1377
g481
F0.11509464608778157
ssI130
(dp1378
g481
F0.150927048037921
ssI131
(dp1379
g481
F0.20544743756437633
ssI100
g1352
sI101
g1361
sI102
g1368
sI104
(dp1380
g481
F0.025057452111661344
ssI105
(dp1381
g481
F0.04000272660978575
ssI106
(dp1382
g481
F0.043969994052030635
ssI107
(dp1383
g481
F0.09412766149088207
ssI108
(dp1384
g481
F0.1400776077270063
ssI132
(dp1385
g481
F0.14670181414262298
ssI134
(dp1386
g481
F0.32095896527825746
ssI133
(dp1387
g481
F0.22444637367697873
sssI104
(dp1388
I128
(dp1389
g481
F0.07867549262311659
ssI129
(dp1390
g481
F0.08138559758972835
ssI130
(dp1391
g481
F0.08529679748679973
ssI131
(dp1392
g481
F0.14047523813485477
ssI132
(dp1393
g481
F0.10626442451135387
ssI133
(dp1394
g481
F0.19360319369755208
ssI102
g1369
sI103
g1380
sI105
(dp1395
g481
F0.01677873478530578
ssI106
(dp1396
g481
F0.052794273930041866
ssI107
(dp1397
g481
F0.11236004981901958
sssI105
(dp1398
I128
(dp1399
g481
F0.039037581538804836
ssI129
(dp1400
g481
F0.057173777931705416
ssI130
(dp1401
g481
F0.08547876197605221
ssI131
(dp1402
g481
F0.15707375751155186
ssI132
(dp1403
g481
F0.13601102032235535
ssI103
g1381
sI104
g1395
sI106
(dp1404
g481
F0.022659041518234942
ssI107
(dp1405
g481
F0.06250697102134808
ssI108
(dp1406
g481
F0.13326746402987605
ssI127
(dp1407
g481
F0.07312939439202609
sssI106
(dp1408
I128
(dp1409
g481
F0.046708440829623527
ssI129
(dp1410
g481
F0.07840398956836117
ssI130
(dp1411
g481
F0.14536739188400244
ssI102
g1370
sI103
g1382
sI104
g1396
sI105
g1404
sI107
(dp1412
g481
F0.017603717202304362
ssI108
(dp1413
g481
F0.05394263214465857
ssI109
(dp1414
g481
F0.12062833624659874
ssI127
(dp1415
g481
F0.07109409339135025
sssI107
(dp1416
I128
(dp1417
g481
F0.04897392727151798
ssI129
(dp1418
g481
F0.08713659793230566
ssI103
g1383
sI104
g1397
sI105
g1405
sI106
g1412
sI108
(dp1419
g481
F0.02161461121347695
ssI109
(dp1420
g481
F0.07402481337712909
ssI123
(dp1421
g481
F0.07648873581210308
ssI124
(dp1422
g481
F0.08611528139698334
ssI125
(dp1423
g481
F0.0703487486029096
ssI126
(dp1424
g481
F0.04750730599129979
ssI127
(dp1425
g481
F0.051513366401784416
sssI108
(dp1426
I128
(dp1427
g481
F0.10849203499669124
ssI129
(dp1428
g481
F0.15266323016469718
ssI102
g1371
sI103
g1384
sI105
g1406
sI106
g1413
sI107
g1419
sI109
(dp1429
g481
F0.03195619014887197
ssI110
(dp1430
g481
F0.1038030279743912
ssI119
(dp1431
g481
F0.11543369393112116
ssI120
(dp1432
g481
F0.0869690910975246
ssI121
(dp1433
g481
F0.06642227518465395
ssI122
(dp1434
g481
F0.07086622799987607
ssI123
(dp1435
g481
F0.07032265784621095
ssI124
(dp1436
g481
F0.09208457155077097
sssI109
(dp1437
I102
g1372
sI106
g1414
sI107
g1420
sI108
g1429
sI110
(dp1438
g481
F0.04424140197653435
ssI111
(dp1439
g481
F0.14830967823865646
ssI118
(dp1440
g481
F0.1874612185439716
ssI119
(dp1441
g481
F0.08433552558578959
ssI120
(dp1442
g481
F0.061470176785507556
ssI121
(dp1443
g481
F0.04533088933026285
ssI122
(dp1444
g481
F0.07227270632242769
ssI123
(dp1445
g481
F0.07967477629174614
sssI110
(dp1446
I102
g1373
sI108
g1430
sI109
g1438
sI111
(dp1447
g481
F0.04561408356347654
ssI112
(dp1448
g481
F0.16102625352263844
ssI117
(dp1449
g481
F0.14328110891825568
ssI118
(dp1450
g481
F0.06944984122644925
ssI119
(dp1451
g481
F0.042392465866867755
ssI120
(dp1452
g481
F0.06195390992133979
ssI121
(dp1453
g481
F0.0851511458877628
ssI122
(dp1454
g481
F0.13703286825050268
sssI111
(dp1455
I109
g1439
sI110
g1447
sI112
(dp1456
g481
F0.052005616486060724
ssI113
(dp1457
g481
F0.10801109410472605
ssI116
(dp1458
g481
F0.18003858888274582
ssI117
(dp1459
g481
F0.11062860988616229
ssI118
(dp1460
g481
F0.0871174138557909
ssI119
(dp1461
g481
F0.11642701847218168
ssI120
(dp1462
g481
F0.12033195852743463
ssI121
(dp1463
g481
F0.16509306520873906
sssI112
(dp1464
I110
g1448
sI111
g1456
sI113
(dp1465
g481
F0.025804765040566013
ssI114
(dp1466
g481
F0.07678327535552233
ssI115
(dp1467
g481
F0.10312369918484039
ssI116
(dp1468
g481
F0.07998329850861594
ssI117
(dp1469
g481
F0.07956524442804622
ssI118
(dp1470
g481
F0.13325881516183066
ssI119
(dp1471
g481
F0.24432529881543522
ssI120
(dp1472
g481
F0.29025935778020434
sssI113
(dp1473
I111
g1457
sI112
g1465
sI114
(dp1474
g481
F0.029332854640353817
ssI115
(dp1475
g481
F0.07677799772037656
ssI116
(dp1476
g481
F0.08390436944593388
ssI117
(dp1477
g481
F0.12211046633523341
ssI118
(dp1478
g481
F0.19292482980188766
sssI114
(dp1479
I112
g1466
sI113
g1474
sI115
(dp1480
g481
F0.027833939292949153
ssI116
(dp1481
g481
F0.058608516756444747
ssI117
(dp1482
g481
F0.13223890962840307
sssI115
(dp1483
I112
g1467
sI113
g1475
sI114
g1480
sI116
(dp1484
g481
F0.03334328189701941
ssI117
(dp1485
g481
F0.10573280933440177
sssI116
(dp1486
I111
g1458
sI112
g1468
sI113
g1476
sI114
g1481
sI115
g1484
sI117
(dp1487
g481
F0.028274751118404672
ssI118
(dp1488
g481
F0.11583375633789461
sssI117
(dp1489
I110
g1449
sI111
g1459
sI112
g1469
sI113
g1477
sI114
g1482
sI115
g1485
sI116
g1487
sI118
(dp1490
g481
F0.04201065603827697
ssI119
(dp1491
g481
F0.15255304226575125
ssI120
(dp1492
g481
F0.26807387960424295
sssI118
(dp1493
I109
g1440
sI110
g1450
sI111
g1460
sI112
g1470
sI113
g1478
sI116
g1488
sI117
g1490
sI119
(dp1494
g481
F0.04050628627212455
ssI120
(dp1495
g481
F0.11024606392198152
ssI121
(dp1496
g481
F0.17669421912615385
sssI119
(dp1497
I108
g1431
sI109
g1441
sI110
g1451
sI111
g1461
sI112
g1471
sI117
g1491
sI118
g1494
sI120
(dp1498
g481
F0.03579818903448787
ssI121
(dp1499
g481
F0.06991955264567269
ssI122
(dp1500
g481
F0.11414065846847025
sssI120
(dp1501
I108
g1432
sI109
g1442
sI110
g1452
sI111
g1462
sI112
g1472
sI117
g1492
sI118
g1495
sI119
g1498
sI121
(dp1502
g481
F0.020556424904824788
ssI122
(dp1503
g481
F0.05623057570180194
sssI121
(dp1504
I108
g1433
sI109
g1443
sI110
g1453
sI111
g1463
sI118
g1496
sI119
g1499
sI120
g1502
sI122
(dp1505
g481
F0.022043914981906297
ssI123
(dp1506
g481
F0.04962595588907468
ssI124
(dp1507
g481
F0.09371157422218093
sssI122
(dp1508
I108
g1434
sI109
g1444
sI110
g1454
sI119
g1500
sI120
g1503
sI121
g1505
sI123
(dp1509
g481
F0.017000664234535882
ssI124
(dp1510
g481
F0.050700886791402444
ssI125
(dp1511
g481
F0.08267215851920874
sssI123
(dp1512
I107
g1421
sI108
g1435
sI109
g1445
sI121
g1506
sI122
g1509
sI124
(dp1513
g481
F0.019873335209743676
ssI125
(dp1514
g481
F0.03673263248211482
ssI126
(dp1515
g481
F0.06273725488609495
ssI127
(dp1516
g481
F0.09373684224818583
sssI124
(dp1517
I107
g1422
sI108
g1436
sI121
g1507
sI122
g1510
sI123
g1513
sI125
(dp1518
g481
F0.016632849520746677
ssI126
(dp1519
g481
F0.05139853035646854
ssI127
(dp1520
g481
F0.08662668675456996
sssI125
(dp1521
I128
(dp1522
g481
F0.07574617603207262
ssI107
g1423
sI122
g1511
sI123
g1514
sI124
g1518
sI126
(dp1523
g481
F0.020514079363375043
ssI127
(dp1524
g481
F0.04673829463528959
sssI126
(dp1525
I128
(dp1526
g481
F0.03459617465000772
ssI107
g1424
sI123
g1515
sI124
g1519
sI125
g1523
sI127
(dp1527
g481
F0.01602056963701096
sssI127
(dp1528
I128
(dp1529
g481
F0.011589671465277526
ssI129
(dp1530
g481
F0.03252966252495665
ssI130
(dp1531
g481
F0.09433305176816906
ssI105
g1407
sI106
g1415
sI107
g1425
sI123
g1516
sI124
g1520
sI125
g1524
sI126
g1527
ssI128
(dp1532
I129
(dp1533
g481
F0.014864888040394552
ssI130
(dp1534
g481
F0.06246585674840824
ssI131
(dp1535
g481
F0.12643418894928574
ssI104
g1389
sI105
g1399
sI106
g1409
sI107
g1417
sI108
g1427
sI125
g1522
sI126
g1526
sI127
g1529
ssI129
(dp1536
I128
g1533
sI130
(dp1537
g481
F0.025896268693986618
ssI131
(dp1538
g481
F0.059438961590372506
ssI132
(dp1539
g481
F0.07126165013158732
ssI102
g1365
sI103
g1377
sI104
g1390
sI105
g1400
sI106
g1410
sI107
g1418
sI108
g1428
sI127
g1530
ssI130
(dp1540
I128
g1534
sI129
g1537
sI131
(dp1541
g481
F0.020595364916342566
ssI132
(dp1542
g481
F0.03962629294060942
ssI103
g1378
sI104
g1391
sI105
g1401
sI106
g1411
sI127
g1531
ssI131
(dp1543
I128
g1535
sI129
g1538
sI130
g1541
sI132
(dp1544
g481
F0.016199561835094776
ssI133
(dp1545
g481
F0.04413300439052967
ssI102
g1366
sI103
g1379
sI104
g1392
sI105
g1402
sI150
(dp1546
g481
F0.1515698734687522
ssI151
(dp1547
g481
F0.15426972732285413
ssI152
(dp1548
g481
F0.19662137843520242
sssI132
(dp1549
I129
g1539
sI130
g1542
sI131
g1544
sI100
g1349
sI101
g1358
sI102
g1374
sI103
g1385
sI104
g1393
sI105
g1403
sI149
(dp1550
g481
F0.32333536365283505
ssI150
(dp1551
g481
F0.17105548785617347
ssI151
(dp1552
g481
F0.15700862030914797
ssI152
(dp1553
g481
F0.20243734728686968
ssI134
(dp1554
g481
F0.12071522222689438
ssI133
(dp1555
g481
F0.028511696496245353
sssI133
(dp1556
I131
g1545
sI100
g1350
sI101
g1359
sI102
g1375
sI103
g1387
sI104
g1394
sI135
(dp1557
g481
F0.34641447355400423
ssI148
(dp1558
g481
F0.2525288095755507
ssI149
(dp1559
g481
F0.1910090097235421
ssI150
(dp1560
g481
F0.10707856469234102
ssI151
(dp1561
g481
F0.14263458269161972
ssI152
(dp1562
g481
F0.21651035367377375
ssI132
g1555
sI134
(dp1563
g481
F0.052048374965549336
sssI134
(dp1564
I132
g1554
sI133
g1563
sI102
g1367
sI103
g1386
sI135
(dp1565
g481
F0.1743479546219101
ssI147
(dp1566
g481
F0.46973806621360004
ssI148
(dp1567
g481
F0.21302036186717072
ssI149
(dp1568
g481
F0.19864860726105157
ssI150
(dp1569
g481
F0.17274659083067867
ssI151
(dp1570
g481
F0.21290494136748422
ssI100
g1355
sI101
g1363
ssI135
(dp1571
I98
g1341
sI99
g1347
sI101
g1362
sI134
g1565
sI136
(dp1572
g481
F0.21059674937328005
ssI146
(dp1573
g481
F0.2298832683047078
ssI147
(dp1574
g481
F0.19243173027624033
ssI148
(dp1575
g481
F0.1697906063722858
ssI149
(dp1576
g481
F0.34394264046687256
ssI150
(dp1577
g481
F0.4993920701756177
ssI133
g1557
ssI136
(dp1578
I97
g1335
sI98
g1342
sI135
g1572
sI137
(dp1579
g481
F0.18023464080308926
ssI138
(dp1580
g481
F0.2907032624622722
ssI139
(dp1581
g481
F0.17592082916129648
ssI140
(dp1582
g481
F0.20729382758274473
ssI146
(dp1583
g481
F0.3026782683742261
ssI147
(dp1584
g481
F0.2752916874769668
ssI148
(dp1585
g481
F0.4586627132419863
sssI137
(dp1586
I97
g1336
sI98
g1343
sI136
g1579
sI138
(dp1587
g481
F0.04550316666426246
ssI139
(dp1588
g481
F0.15008314818133203
ssI140
(dp1589
g481
F0.26706963615739787
sssI138
(dp1590
I136
g1580
sI97
g1337
sI139
(dp1591
g481
F0.08861774372945425
ssI140
(dp1592
g481
F0.19014135373813715
ssI137
g1587
ssI139
(dp1593
I97
g1338
sI136
g1581
sI137
g1588
sI138
g1591
sI140
(dp1594
g481
F0.04486971639146878
ssI141
(dp1595
g481
F0.14925359201066718
sssI140
(dp1596
I136
g1582
sI137
g1589
sI138
g1592
sI139
g1594
sI141
(dp1597
g481
F0.05068138585913499
ssI142
(dp1598
g481
F0.09286127818517514
ssI143
(dp1599
g481
F0.15838605271920875
ssI144
(dp1600
g481
F0.22848509120872124
ssI145
(dp1601
g481
F0.3258653702118811
ssI146
(dp1602
g481
F0.36588898748059356
sssI141
(dp1603
I139
g1595
sI140
g1597
sI142
(dp1604
g481
F0.02226683330173034
ssI143
(dp1605
g481
F0.08055036509297042
ssI144
(dp1606
g481
F0.17249512629637173
ssI145
(dp1607
g481
F0.23768333445573658
ssI146
(dp1608
g481
F0.30946053691913794
sssI142
(dp1609
I140
g1598
sI141
g1604
sI143
(dp1610
g481
F0.040117998604358995
ssI144
(dp1611
g481
F0.12363749066754212
ssI145
(dp1612
g481
F0.17622455405839293
ssI146
(dp1613
g481
F0.25981982297438955
sssI143
(dp1614
I140
g1599
sI141
g1605
sI142
g1610
sI144
(dp1615
g481
F0.044624376263177404
ssI145
(dp1616
g481
F0.0833155095726064
ssI146
(dp1617
g481
F0.18109724039024389
sssI144
(dp1618
I140
g1600
sI141
g1606
sI142
g1611
sI143
g1615
sI145
(dp1619
g481
F0.025980806916232408
ssI146
(dp1620
g481
F0.09516427827806005
ssI147
(dp1621
g481
F0.20769057106409872
sssI145
(dp1622
I140
g1601
sI141
g1607
sI142
g1612
sI143
g1616
sI144
g1619
sI146
(dp1623
g481
F0.04338519438061527
ssI147
(dp1624
g481
F0.13319514272713492
ssI148
(dp1625
g481
F0.2745418777386124
sssI146
(dp1626
I135
g1573
sI136
g1583
sI140
g1602
sI141
g1608
sI142
g1613
sI143
g1617
sI144
g1620
sI145
g1623
sI147
(dp1627
g481
F0.07003059015450654
ssI148
(dp1628
g481
F0.20371595254373775
sssI147
(dp1629
I134
g1566
sI135
g1574
sI136
g1584
sI144
g1621
sI145
g1624
sI146
g1627
sI148
(dp1630
g481
F0.06692912252451938
ssI149
(dp1631
g481
F0.2138412272248348
sssI148
(dp1632
I133
g1558
sI134
g1567
sI135
g1575
sI136
g1585
sI145
g1625
sI146
g1628
sI147
g1630
sI149
(dp1633
g481
F0.06721824568279965
ssI150
(dp1634
g481
F0.1982131386527754
ssI151
(dp1635
g481
F0.3779127684317035
sssI149
(dp1636
I132
g1550
sI133
g1559
sI134
g1568
sI135
g1576
sI147
g1631
sI148
g1633
sI150
(dp1637
g481
F0.05645002168104181
ssI151
(dp1638
g481
F0.14623470865237556
sssI150
(dp1639
I131
g1546
sI132
g1551
sI133
g1560
sI134
g1569
sI135
g1577
sI148
g1634
sI149
g1637
sI151
(dp1640
g481
F0.0422215940089661
ssI152
(dp1641
g481
F0.09829328351324493
ssI153
(dp1642
g481
F0.20640966122681983
sssI151
(dp1643
I131
g1547
sI132
g1552
sI133
g1561
sI134
g1570
sI148
g1635
sI149
g1638
sI150
g1640
sI152
(dp1644
g481
F0.02654982127654151
ssI153
(dp1645
g481
F0.07591914416174358
ssI154
(dp1646
g481
F0.17423513852118744
sssI152
(dp1647
I131
g1548
sI132
g1553
sI133
g1562
sI150
g1641
sI151
g1644
sI153
(dp1648
g481
F0.030034538993965614
ssI154
(dp1649
g481
F0.11692073461981245
ssI155
(dp1650
g481
F0.23800996691206994
sssI153
(dp1651
I150
g1642
sI151
g1645
sI152
g1648
sI154
(dp1652
g481
F0.04529590107206303
ssI155
(dp1653
g481
F0.11421468827218142
ssI156
(dp1654
g481
F0.25765474936230937
sssI154
(dp1655
I151
g1646
sI152
g1649
sI153
g1652
sI155
(dp1656
g481
F0.03963770357749362
ssI156
(dp1657
g481
F0.11668185032489002
ssI157
(dp1658
g481
F0.22616311716701545
sssI155
(dp1659
I152
g1650
sI153
g1653
sI154
g1656
sI156
(dp1660
g481
F0.045371616955170925
ssI157
(dp1661
g481
F0.1169248214713024
ssI158
(dp1662
g481
F0.30624296689752734
sssI156
(dp1663
I153
g1654
sI154
g1657
sI155
g1660
sI157
(dp1664
g481
F0.05532284595536066
ssI158
(dp1665
g481
F0.1620896297991166
sssI157
(dp1666
I154
g1658
sI155
g1661
sI156
g1664
sI158
(dp1667
g481
F0.06951616260453723
ssI159
(dp1668
g481
F0.2517330000808288
sssI158
(dp1669
I160
(dp1670
g481
F0.2624879994439723
ssI161
(dp1671
g481
F0.2897184908074664
ssI100
g1353
sI155
g1662
sI156
g1665
sI157
g1667
sI159
(dp1672
g481
F0.0672656759806708
sssI159
(dp1673
I160
(dp1674
g481
F0.09509138317015481
ssI161
(dp1675
g481
F0.21845931770508795
ssI100
g1354
sI157
g1668
sI158
g1672
ssI160
(dp1676
I161
(dp1677
g481
F0.07978709602353626
ssI162
(dp1678
g481
F0.3942092058378677
ssI158
g1670
sI159
g1674
ssI161
(dp1679
I160
g1677
sI162
(dp1680
g481
F0.18575116967827343
ssI158
g1671
sI159
g1675
ssI162
(dp1681
I160
g1678
sI161
g1680
sI163
(dp1682
g481
F0.2379647461492893
ssI164
(dp1683
g481
F0.45646416824434227
sssI163
(dp1684
I96
g1331
sI162
g1682
sI164
(dp1685
g481
F0.11819335624461062
ssI165
(dp1686
g481
F0.24527929677467983
ssI166
(dp1687
g481
F0.4586858150457432
ssI95
g1325
ssI164
(dp1688
I96
g1332
sI162
g1683
sI163
g1685
sI165
(dp1689
g481
F0.0666139613382479
ssI166
(dp1690
g481
F0.16826231768829222
ssI167
(dp1691
g481
F0.2538028396532631
ssI92
g1293
sI93
g1307
sI94
g1318
sI95
g1326
ssI165
(dp1692
I163
g1686
sI164
g1689
sI166
(dp1693
g481
F0.08925515707253118
ssI167
(dp1694
g481
F0.13061264453714178
ssI91
g1278
sI92
g1294
sI93
g1308
sI94
g1319
sI95
g1327
ssI166
(dp1695
I163
g1687
sI164
g1690
sI165
g1693
sI167
(dp1696
g481
F0.03766974481956502
ssI168
(dp1697
g481
F0.08675890191445917
ssI90
g1263
sI91
g1279
sI92
g1295
sI93
g1309
sI94
g1320
ssI167
(dp1698
I164
g1691
sI165
g1694
sI166
g1696
sI168
(dp1699
g481
F0.03355665236164959
ssI169
(dp1700
g481
F0.0723824675457431
ssI394
(dp1701
g481
F0.09625230532711362
ssI393
(dp1702
g481
F0.095767112060922
ssI89
g1248
sI90
g1264
sI91
g1280
sI92
g1296
sI93
g1310
ssI168
(dp1703
I166
g1697
sI167
g1699
sI169
(dp1704
g481
F0.02316821505351738
ssI170
(dp1705
g481
F0.0726759922268031
ssI88
g1233
sI89
g1249
sI90
g1265
sI91
g1281
sI92
g1297
sI394
(dp1706
g481
F0.082590069400289
sssI169
(dp1707
I395
(dp1708
g481
F0.07559458024503939
ssI167
g1700
sI168
g1704
sI170
(dp1709
g481
F0.028419523959125496
ssI171
(dp1710
g481
F0.10056316511798792
ssI172
(dp1711
g481
F0.12979358039429031
ssI87
g1218
sI88
g1234
sI89
g1250
sI90
g1266
sI91
g1282
ssI170
(dp1712
I168
g1705
sI169
g1709
sI171
(dp1713
g481
F0.03225285763960243
ssI172
(dp1714
g481
F0.061292275107752564
ssI86
g1204
sI87
g1219
sI88
g1235
sI89
g1251
sI90
g1267
ssI171
(dp1715
I169
g1710
sI170
g1713
sI172
(dp1716
g481
F0.016746367874977297
ssI173
(dp1717
g481
F0.07262868919504811
ssI86
g1205
sI87
g1220
sI88
g1236
sI89
g1252
ssI172
(dp1718
I169
g1711
sI170
g1714
sI171
g1716
sI396
(dp1719
g481
F0.17221688896805148
ssI173
(dp1720
g481
F0.04778555285532399
ssI174
(dp1721
g481
F0.20678501757058657
ssI175
(dp1722
g481
F0.4317324010347115
ssI82
g1171
sI83
g1178
sI84
g1184
sI85
g1193
sI86
g1206
sI87
g1221
sI88
g1237
sI89
g1253
sI397
(dp1723
g481
F0.18937492931466232
sssI173
(dp1724
I171
g1717
sI172
g1720
sI397
(dp1725
g481
F0.2856809625796123
ssI174
(dp1726
g481
F0.1990113154004522
ssI175
(dp1727
g481
F0.36604454679700665
ssI83
g1179
sI84
g1185
sI85
g1194
sI86
g1207
sI87
g1222
sI88
g1238
ssI174
(dp1728
I172
g1721
sI173
g1726
sI175
(dp1729
g481
F0.19063996019212784
ssI176
(dp1730
g481
F0.3906440443456365
ssI177
(dp1731
g481
F0.4889611852484691
ssI84
g1186
sI85
g1195
sI86
g1208
sI397
(dp1732
g481
F0.34599113901810286
ssI345
(dp1733
g481
F0.39766806384366904
sssI175
(dp1734
I176
(dp1735
g481
F0.19223478968909652
ssI177
(dp1736
g481
F0.3294763037671949
ssI172
g1722
sI173
g1727
sI174
g1729
ssI176
(dp1737
I177
(dp1738
g481
F0.20051758285205715
ssI178
(dp1739
g481
F0.40031057366429
ssI174
g1730
sI175
g1735
ssI177
(dp1740
I176
g1738
sI178
(dp1741
g481
F0.25077481977752686
ssI174
g1731
sI175
g1736
ssI178
(dp1742
I176
g1739
sI177
g1741
sI179
(dp1743
g481
F0.47253655087673585
sssI179
(dp1744
I178
g1743
sI180
(dp1745
g481
F0.27103530348511534
sssI180
(dp1746
I179
g1745
sI181
(dp1747
g481
F0.13577579336771683
ssI182
(dp1748
g481
F0.2406457538074779
ssI217
(dp1749
g481
F0.34985463721293203
ssI25
g723
sI218
(dp1750
g481
F0.3382069002995989
ssI219
(dp1751
g481
F0.31881912963743264
ssI220
(dp1752
g481
F0.4361204168953231
sssI181
(dp1753
I216
(dp1754
g481
F0.23421649946888587
ssI180
g1747
sI182
(dp1755
g481
F0.08555005070621716
ssI183
(dp1756
g481
F0.15199139072341533
ssI24
g712
sI25
g724
sI217
(dp1757
g481
F0.13727618586237067
ssI219
(dp1758
g481
F0.18576581113063687
ssI220
(dp1759
g481
F0.38962208714675406
ssI218
(dp1760
g481
F0.12745719337221295
sssI182
(dp1761
I217
(dp1762
g481
F0.11258803100922442
ssI218
(dp1763
g481
F0.09917269722134572
ssI220
(dp1764
g481
F0.3124179172255054
ssI43
g838
sI184
(dp1765
g481
F0.09434726560246802
ssI180
g1748
sI181
g1755
sI23
g679
sI24
g697
sI25
g725
sI26
g737
sI219
(dp1766
g481
F0.2154779581435539
ssI216
(dp1767
g481
F0.17705865482981906
ssI183
(dp1768
g481
F0.044822962486994945
ssI215
(dp1769
g481
F0.14347283663494179
sssI183
(dp1770
I214
(dp1771
g481
F0.06158421021555481
ssI217
(dp1772
g481
F0.1024969341996649
ssI182
g1768
sI43
g839
sI46
g854
sI184
(dp1773
g481
F0.03497757081637849
ssI215
(dp1774
g481
F0.0551732438729986
ssI21
g656
sI22
g676
sI23
g689
sI24
g710
sI25
g730
sI26
g738
sI219
(dp1775
g481
F0.3335263883981158
ssI216
(dp1776
g481
F0.099921601126826
ssI218
(dp1777
g481
F0.1385404209893491
ssI185
(dp1778
g481
F0.04667246755326732
ssI181
g1756
ssI184
(dp1779
I192
(dp1780
g481
F0.06349314132555182
ssI214
(dp1781
g481
F0.0539637066056053
ssI213
(dp1782
g481
F0.07868071579826737
ssI215
(dp1783
g481
F0.05513476038809322
ssI69
g1067
sI73
g1106
sI183
g1773
sI217
(dp1784
g481
F0.1795079356567345
ssI216
(dp1785
g481
F0.15527623148378292
ssI20
g645
sI21
g657
sI22
g669
sI23
g687
sI24
g706
sI25
g722
sI186
(dp1786
g481
F0.029362132810996883
ssI218
(dp1787
g481
F0.19563481716924502
ssI185
(dp1788
g481
F0.015032661068626885
ssI182
g1765
ssI185
(dp1789
I192
(dp1790
g481
F0.03477944882702264
ssI449
(dp1791
g481
F0.05584817375146881
ssI213
(dp1792
g481
F0.037771254101747594
ssI215
(dp1793
g481
F0.04202296419345561
ssI214
(dp1794
g481
F0.02668614152318926
ssI23
g693
sI216
(dp1795
g481
F0.1345317522185344
ssI184
g1788
sI20
g646
sI21
g661
sI22
g673
sI183
g1778
sI24
g711
sI212
(dp1796
g481
F0.0770654119313862
ssI186
(dp1797
g481
F0.00913530193732829
ssI187
(dp1798
g481
F0.022248732284339916
ssI188
(dp1799
g481
F0.0334263566079789
ssI190
(dp1800
g481
F0.03004989461133022
ssI191
(dp1801
g481
F0.03037653372964628
sssI186
(dp1802
I192
(dp1803
g481
F0.029127808711587624
ssI449
(dp1804
g481
F0.03737567365593773
ssI213
(dp1805
g481
F0.04558457522326645
ssI451
(dp1806
g481
F0.0334894684196959
ssI212
(dp1807
g481
F0.08778940097684425
ssI214
(dp1808
g481
F0.043102692793905065
ssI215
(dp1809
g481
F0.06404171666821512
ssI450
(dp1810
g481
F0.033750586561604144
ssI19
g635
sI20
g647
sI21
g662
sI22
g674
sI23
g692
sI184
g1786
sI185
g1797
sI187
(dp1811
g481
F0.011836447308791145
ssI188
(dp1812
g481
F0.024775070075246503
ssI189
(dp1813
g481
F0.025531343788967917
ssI190
(dp1814
g481
F0.016219492221104304
ssI191
(dp1815
g481
F0.022229229871342304
sssI187
(dp1816
I213
(dp1817
g481
F0.0632360783637146
ssI451
(dp1818
g481
F0.035581128093127995
ssI214
(dp1819
g481
F0.06190964780692502
ssI19
g636
sI20
g648
sI21
g663
sI22
g675
sI185
g1798
sI186
g1811
sI188
(dp1820
g481
F0.011382684836821278
ssI189
(dp1821
g481
F0.019974148409961683
ssI190
(dp1822
g481
F0.01676988530127004
ssI191
(dp1823
g481
F0.030868444529663107
sssI188
(dp1824
I451
(dp1825
g481
F0.03825901371663838
ssI452
(dp1826
g481
F0.041140331503670156
ssI213
(dp1827
g481
F0.056030656935866154
ssI185
g1799
sI186
g1812
sI187
g1820
sI189
(dp1828
g481
F0.01059956223010171
ssI190
(dp1829
g481
F0.01641051694939089
ssI191
(dp1830
g481
F0.02653727364719403
sssI189
(dp1831
I450
(dp1832
g481
F0.028812128776266942
ssI451
(dp1833
g481
F0.02240543578904403
ssI452
(dp1834
g481
F0.027807218526125294
ssI453
(dp1835
g481
F0.0385752744447156
ssI186
g1813
sI187
g1821
sI188
g1828
sI190
(dp1836
g481
F0.007005676565760418
ssI191
(dp1837
g481
F0.017542206611362306
sssI190
(dp1838
I192
(dp1839
g481
F0.020657854635146085
ssI193
(dp1840
g481
F0.04434931285322055
ssI213
(dp1841
g481
F0.05239766907096645
ssI451
(dp1842
g481
F0.012389139719436471
ssI452
(dp1843
g481
F0.022687698132732272
ssI453
(dp1844
g481
F0.034350504189596016
ssI449
(dp1845
g481
F0.0263750255578816
ssI450
(dp1846
g481
F0.01445498200245263
ssI14
g582
sI15
g592
sI16
g603
sI17
g612
sI19
g637
sI212
(dp1847
g481
F0.08325675277762043
ssI21
g664
sI185
g1800
sI186
g1814
sI187
g1822
sI188
g1829
sI189
g1836
sI191
(dp1848
g481
F0.00913451996623722
sssI191
(dp1849
I192
(dp1850
g481
F0.008461589891504086
ssI193
(dp1851
g481
F0.02474335978243412
ssI194
(dp1852
g481
F0.07629251007518784
ssI451
(dp1853
g481
F0.024666012881299763
ssI452
(dp1854
g481
F0.024755640527975728
ssI448
(dp1855
g481
F0.05815400531507968
ssI449
(dp1856
g481
F0.03877191937554373
ssI450
(dp1857
g481
F0.023770238997300096
ssI14
g583
sI17
g613
sI211
(dp1858
g481
F0.05490452026098313
ssI212
(dp1859
g481
F0.04829154663466049
ssI21
g665
sI214
(dp1860
g481
F0.03889504349500475
ssI185
g1801
sI186
g1815
sI187
g1823
sI188
g1830
sI189
g1837
sI190
g1848
sI213
(dp1861
g481
F0.030875083661554833
sssI192
(dp1862
I448
(dp1863
g481
F0.0427663965349511
ssI193
(dp1864
g481
F0.01281474182592441
ssI194
(dp1865
g481
F0.05838726968737397
ssI451
(dp1866
g481
F0.03246211654340427
ssI449
(dp1867
g481
F0.03522821124720188
ssI213
(dp1868
g481
F0.03164318443280851
ssI450
(dp1869
g481
F0.026841337840566654
ssI210
(dp1870
g481
F0.09747476276032604
ssI211
(dp1871
g481
F0.04944770628592209
ssI212
(dp1872
g481
F0.04529945597290702
ssI21
g650
sI214
(dp1873
g481
F0.03802408176130108
ssI215
(dp1874
g481
F0.05439447782172378
ssI184
g1780
sI185
g1790
sI186
g1803
sI447
(dp1875
g481
F0.050034371230406174
ssI190
g1839
sI191
g1850
ssI193
(dp1876
I448
(dp1877
g481
F0.05612522090713924
ssI450
(dp1878
g481
F0.04525904310808967
ssI14
g571
sI16
g595
sI451
(dp1879
g481
F0.054287617172879776
ssI60
g940
sI446
(dp1880
g481
F0.10252110440227048
ssI447
(dp1881
g481
F0.047515369122491824
ssI192
g1864
sI449
(dp1882
g481
F0.0575770803457092
ssI194
(dp1883
g481
F0.02701113244614136
ssI195
(dp1884
g481
F0.07050684245189164
ssI196
(dp1885
g481
F0.22594537438762727
ssI62
g966
sI209
(dp1886
g481
F0.06801880584340855
ssI210
(dp1887
g481
F0.05551039984339633
ssI211
(dp1888
g481
F0.029669881666174208
ssI212
(dp1889
g481
F0.03625667972456159
ssI213
(dp1890
g481
F0.038308434475014315
ssI214
(dp1891
g481
F0.04967412506122098
ssI215
(dp1892
g481
F0.06511515169214249
ssI190
g1840
sI191
g1851
ssI194
(dp1893
I192
g1865
sI193
g1883
sI195
(dp1894
g481
F0.02410869334838731
ssI196
(dp1895
g481
F0.12594339391573564
ssI197
(dp1896
g481
F0.2629016791564405
ssI449
(dp1897
g481
F0.12750905833752177
ssI206
(dp1898
g481
F0.07943662273579148
ssI208
(dp1899
g481
F0.10217188192713675
ssI209
(dp1900
g481
F0.03664229593575435
ssI210
(dp1901
g481
F0.03448209263849165
ssI211
(dp1902
g481
F0.03645490917830603
ssI212
(dp1903
g481
F0.048310563133851174
ssI446
(dp1904
g481
F0.07434957437749082
ssI54
g893
sI215
(dp1905
g481
F0.0914744823901015
ssI448
(dp1906
g481
F0.1137248437845014
ssI447
(dp1907
g481
F0.06398541586840481
ssI444
(dp1908
g481
F0.20357632111422247
ssI445
(dp1909
g481
F0.19833872255814206
ssI62
g972
sI191
g1852
ssI195
(dp1910
I448
(dp1911
g481
F0.17875845228175577
ssI193
g1884
sI194
g1894
sI196
(dp1912
g481
F0.06088962564990789
ssI197
(dp1913
g481
F0.14957417337858275
ssI198
(dp1914
g481
F0.3461379881627177
ssI200
(dp1915
g481
F0.22485334089561865
ssI202
(dp1916
g481
F0.4237472699554765
ssI205
(dp1917
g481
F0.1277741127023058
ssI206
(dp1918
g481
F0.04439049900056168
ssI207
(dp1919
g481
F0.06128213560209647
ssI208
(dp1920
g481
F0.049157914953689236
ssI209
(dp1921
g481
F0.025512266411306984
ssI210
(dp1922
g481
F0.0450911725790255
ssI211
(dp1923
g481
F0.07083634891388084
ssI446
(dp1924
g481
F0.07874629798578184
ssI445
(dp1925
g481
F0.21048845013472678
ssI60
g941
sI61
g952
sI62
g975
sI447
(dp1926
g481
F0.10367865587234137
sssI196
(dp1927
I193
g1885
sI194
g1895
sI195
g1912
sI197
(dp1928
g481
F0.043228654120459314
ssI198
(dp1929
g481
F0.15819786806824337
ssI199
(dp1930
g481
F0.2755030947985471
ssI200
(dp1931
g481
F0.15974090976467592
ssI206
(dp1932
g481
F0.1417847362937618
ssI207
(dp1933
g481
F0.11573745641314359
ssI208
(dp1934
g481
F0.033668039722159544
ssI209
(dp1935
g481
F0.07396191476114106
ssI210
(dp1936
g481
F0.10221287904166522
ssI54
g894
sI446
(dp1937
g481
F0.2045012766227378
ssI447
(dp1938
g481
F0.29615061522203284
sssI197
(dp1939
I194
g1896
sI195
g1913
sI196
g1928
sI198
(dp1940
g481
F0.06302021684591214
ssI199
(dp1941
g481
F0.12454529330074254
ssI200
(dp1942
g481
F0.08446451953852573
ssI206
(dp1943
g481
F0.20947966782006983
ssI207
(dp1944
g481
F0.18118411284132258
ssI208
(dp1945
g481
F0.0840189156578224
ssI209
(dp1946
g481
F0.17501631397936765
ssI446
(dp1947
g481
F0.31279858575475505
sssI198
(dp1948
I195
g1914
sI196
g1929
sI197
g1940
sI199
(dp1949
g481
F0.045608718345944724
ssI200
(dp1950
g481
F0.09038328741365469
ssI208
(dp1951
g481
F0.2533105863347937
sssI199
(dp1952
I200
(dp1953
g481
F0.0774344402773822
ssI196
g1930
sI197
g1941
sI198
g1949
ssI200
(dp1954
I195
g1915
sI196
g1931
sI197
g1942
sI198
g1950
sI199
g1953
sI201
(dp1955
g481
F0.27828152385143196
ssI202
(dp1956
g481
F0.41034957823484525
ssI203
(dp1957
g481
F0.40267821622603267
ssI204
(dp1958
g481
F0.3296577940465268
ssI205
(dp1959
g481
F0.26981314605745604
ssI206
(dp1960
g481
F0.21807918384994693
ssI446
(dp1961
g481
F0.2699743640570571
ssI445
(dp1962
g481
F0.36122307480984084
ssI62
g967
ssI201
(dp1963
I64
g1011
sI200
g1955
sI202
(dp1964
g481
F0.26419707521298547
ssI203
(dp1965
g481
F0.27036732957337717
ssI204
(dp1966
g481
F0.2653829275687606
ssI205
(dp1967
g481
F0.34468401179887714
ssI206
(dp1968
g481
F0.41392567611090125
ssI239
(dp1969
g481
F0.4817900410266377
ssI240
(dp1970
g481
F0.40734358318363284
ssI238
(dp1971
g481
F0.47684393023411487
ssI446
(dp1972
g481
F0.4064062611599574
ssI445
(dp1973
g481
F0.3305352958025114
ssI62
g968
sI63
g986
ssI202
(dp1974
I61
g953
sI441
(dp1975
g481
F0.2157996352093259
ssI442
(dp1976
g481
F0.3160418492692543
ssI444
(dp1977
g481
F0.1670139227762951
ssI445
(dp1978
g481
F0.13912402154319267
ssI446
(dp1979
g481
F0.20694078564623813
ssI447
(dp1980
g481
F0.23925517279258754
ssI64
g1012
sI65
g1024
sI195
g1916
sI200
g1956
sI201
g1964
sI203
(dp1981
g481
F0.04309734103358974
ssI204
(dp1982
g481
F0.0992982874643864
ssI205
(dp1983
g481
F0.17956556760288
ssI206
(dp1984
g481
F0.3123428109729316
ssI239
(dp1985
g481
F0.44689481131310593
ssI240
(dp1986
g481
F0.22127935170869986
ssI241
(dp1987
g481
F0.2683773060297747
ssI242
(dp1988
g481
F0.22228678874706576
ssI62
g969
sI63
g987
ssI203
(dp1989
I64
g1013
sI65
g1025
sI66
g1037
sI200
g1957
sI201
g1965
sI202
g1981
sI204
(dp1990
g481
F0.04346356707956618
ssI205
(dp1991
g481
F0.11788482321809612
ssI206
(dp1992
g481
F0.25546572611760077
ssI445
(dp1993
g481
F0.11763974145628651
ssI240
(dp1994
g481
F0.2335195133913486
ssI241
(dp1995
g481
F0.24616459534830967
ssI242
(dp1996
g481
F0.17760651858415955
ssI446
(dp1997
g481
F0.19525210146367467
ssI61
g954
sI62
g970
sI63
g988
ssI204
(dp1998
I64
g1014
sI200
g1958
sI201
g1966
sI202
g1982
sI203
g1990
sI205
(dp1999
g481
F0.0441039757673708
ssI206
(dp2000
g481
F0.13997106031289488
ssI60
g942
sI61
g955
sI62
g971
sI63
g989
ssI205
(dp2001
I195
g1917
sI200
g1959
sI201
g1967
sI202
g1983
sI203
g1991
sI204
g1999
sI206
(dp2002
g481
F0.042918135830584
ssI207
(dp2003
g481
F0.10101699546970205
ssI208
(dp2004
g481
F0.24041096280658955
ssI59
g932
sI60
g943
sI61
g956
sI62
g974
sI63
g990
ssI206
(dp2005
I194
g1898
sI195
g1918
sI196
g1932
sI197
g1943
sI200
g1960
sI201
g1968
sI202
g1984
sI203
g1992
sI204
g2000
sI205
g2002
sI207
(dp2006
g481
F0.029270495607959204
ssI208
(dp2007
g481
F0.09921475634799316
ssI209
(dp2008
g481
F0.07656112387935109
ssI446
(dp2009
g481
F0.09422629071502378
ssI58
g925
sI59
g933
sI60
g944
sI61
g957
sI62
g973
ssI207
(dp2010
I195
g1919
sI196
g1933
sI197
g1944
sI205
g2003
sI206
g2006
sI208
(dp2011
g481
F0.07206013828447977
ssI209
(dp2012
g481
F0.068718872416296
ssI55
g902
sI56
g911
sI57
g919
sI58
g926
sI59
g934
sI60
g945
sI61
g958
ssI208
(dp2013
I194
g1899
sI195
g1920
sI196
g1934
sI197
g1945
sI198
g1951
sI205
g2004
sI206
g2007
sI207
g2011
sI209
(dp2014
g481
F0.03052935416565522
ssI210
(dp2015
g481
F0.05977958393294924
ssI54
g895
sI55
g903
sI56
g912
sI57
g920
sI58
g927
sI59
g935
sI60
g946
ssI209
(dp2016
I193
g1886
sI194
g1900
sI195
g1921
sI196
g1935
sI197
g1946
sI206
g2008
sI207
g2012
sI208
g2014
sI210
(dp2017
g481
F0.012629714541116244
ssI211
(dp2018
g481
F0.03965091279257713
ssI53
g887
sI54
g896
sI55
g904
sI56
g913
sI57
g921
sI58
g928
sI59
g936
sI60
g947
sI446
(dp2019
g481
F0.14942259036364688
ssI447
(dp2020
g481
F0.15403127898412267
sssI210
(dp2021
I192
g1870
sI193
g1887
sI194
g1901
sI195
g1922
sI196
g1936
sI208
g2015
sI209
g2017
sI211
(dp2022
g481
F0.017012668378512032
ssI52
g880
sI53
g888
sI54
g897
sI55
g905
sI56
g914
sI212
(dp2023
g481
F0.03366397112211057
ssI447
(dp2024
g481
F0.15646314076550175
sssI211
(dp2025
I192
g1871
sI193
g1888
sI194
g1902
sI195
g1923
sI214
(dp2026
g481
F0.050020272201142905
ssI449
(dp2027
g481
F0.14459084507336747
ssI213
(dp2028
g481
F0.03302090891361823
ssI450
(dp2029
g481
F0.11633327276390873
ssI209
g2018
sI210
g2022
sI51
g873
sI52
g879
sI53
g886
sI54
g898
sI55
g906
sI212
(dp2030
g481
F0.010557455504726787
ssI448
(dp2031
g481
F0.1499405592642797
ssI447
(dp2032
g481
F0.12300218852131055
ssI191
g1858
ssI212
(dp2033
I192
g1872
sI193
g1889
sI194
g1903
sI211
g2030
sI449
(dp2034
g481
F0.14151820868777717
ssI213
(dp2035
g481
F0.015545593063548515
ssI210
g2023
sI50
g871
sI51
g876
sI52
g881
sI53
g891
sI214
(dp2036
g481
F0.028914399389490492
ssI215
(dp2037
g481
F0.04992202315200564
ssI185
g1796
sI186
g1807
sI447
(dp2038
g481
F0.12678962135575808
ssI190
g1847
sI191
g1859
ssI213
(dp2039
I192
g1868
sI193
g1890
sI212
g2035
sI211
g2028
sI50
g870
sI51
g877
sI52
g884
sI214
(dp2040
g481
F0.011697070573461619
ssI215
(dp2041
g481
F0.03529724099948472
ssI184
g1782
sI185
g1792
sI186
g1805
sI187
g1817
sI188
g1827
sI190
g1841
sI191
g1861
ssI214
(dp2042
I192
g1873
sI193
g1891
sI213
g2040
sI217
(dp2043
g481
F0.13554580924680285
ssI23
g678
sI184
g1781
sI211
g2026
sI212
g2036
sI21
g651
sI22
g670
sI183
g1771
sI24
g695
sI185
g1794
sI186
g1808
sI187
g1819
sI216
(dp2044
g481
F0.0721881990301637
ssI215
(dp2045
g481
F0.013943394708621952
ssI191
g1860
ssI215
(dp2046
I192
g1874
sI193
g1892
sI194
g1905
sI217
(dp2047
g481
F0.10491810865142666
ssI214
g2045
sI444
(dp2048
g481
F0.25478845833324276
ssI23
g688
sI184
g1783
sI212
g2037
sI213
g2041
sI182
g1769
sI183
g1774
sI24
g705
sI185
g1793
sI186
g1809
sI443
(dp2049
g481
F0.3888720663949776
ssI216
(dp2050
g481
F0.04514086979547094
ssI218
(dp2051
g481
F0.1924146788605136
ssI447
(dp2052
g481
F0.11223627606927321
sssI216
(dp2053
I182
g1767
sI215
g2050
sI181
g1754
sI214
g2044
sI183
g1776
sI184
g1785
sI185
g1795
sI217
(dp2054
g481
F0.054274024410773676
ssI443
(dp2055
g481
F0.4847008933752363
ssI444
(dp2056
g481
F0.3819503020903553
ssI218
(dp2057
g481
F0.18106073620920737
sssI217
(dp2058
I443
(dp2059
g481
F0.5107243606018046
ssI214
g2043
sI215
g2047
sI184
g1784
sI180
g1749
sI181
g1757
sI182
g1762
sI183
g1772
sI24
g696
sI25
g726
sI218
(dp2060
g481
F0.09621962366052159
ssI219
(dp2061
g481
F0.2917113468413547
ssI216
g2054
ssI218
(dp2062
I443
(dp2063
g481
F0.4074497352799789
ssI444
(dp2064
g481
F0.33235834576510054
ssI183
g1777
sI216
g2057
sI180
g1750
sI181
g1760
sI182
g1763
sI215
g2051
sI184
g1787
sI217
g2060
sI219
(dp2065
g481
F0.10201173861371188
ssI220
(dp2066
g481
F0.26593613818678785
sssI219
(dp2067
I180
g1751
sI181
g1758
sI182
g1766
sI183
g1775
sI217
g2061
sI218
g2065
sI220
(dp2068
g481
F0.13316878965431575
ssI221
(dp2069
g481
F0.34870716367961224
sssI220
(dp2070
I77
g1138
sI80
g1161
sI81
g1169
sI180
g1752
sI181
g1759
sI182
g1764
sI440
(dp2071
g481
F0.4565881798447608
ssI218
g2066
sI219
g2068
sI221
(dp2072
g481
F0.13125721932678575
ssI222
(dp2073
g481
F0.4683168583690315
sssI221
(dp2074
I77
g1139
sI436
(dp2075
g481
F0.3591124383871187
ssI439
(dp2076
g481
F0.4007990136172848
ssI219
g2069
sI220
g2072
sI222
(dp2077
g481
F0.31694446658110975
ssI223
(dp2078
g481
F0.49700493939354257
sssI222
(dp2079
I224
(dp2080
g481
F0.13629165802676269
ssI226
(dp2081
g481
F0.29043139726811357
ssI227
(dp2082
g481
F0.23564912358945794
ssI228
(dp2083
g481
F0.40117462514752744
ssI340
(dp2084
g481
F0.2826481578231131
ssI341
(dp2085
g481
F0.2558679651458281
ssI342
(dp2086
g481
F0.2636876535794423
ssI439
(dp2087
g481
F0.16497671910474887
ssI440
(dp2088
g481
F0.306916795392859
ssI436
(dp2089
g481
F0.1479112015134617
ssI220
g2073
sI221
g2077
sI223
(dp2090
g481
F0.08211094066370563
sssI223
(dp2091
I224
(dp2092
g481
F0.026244010006344066
ssI225
(dp2093
g481
F0.0698844604530779
ssI226
(dp2094
g481
F0.10944776186796468
ssI227
(dp2095
g481
F0.1270598317936763
ssI228
(dp2096
g481
F0.2703082030717411
ssI414
(dp2097
g481
F0.11874486137806194
ssI335
(dp2098
g481
F0.10916239049328469
ssI434
(dp2099
g481
F0.154848595680976
ssI339
(dp2100
g481
F0.1193463009435612
ssI340
(dp2101
g481
F0.09446249026924232
ssI341
(dp2102
g481
F0.09652055848054089
ssI342
(dp2103
g481
F0.1447334309195874
ssI439
(dp2104
g481
F0.2835389254871523
ssI436
(dp2105
g481
F0.23418937909646725
ssI221
g2078
sI222
g2090
ssI224
(dp2106
I413
(dp2107
g481
F0.14927469794282927
ssI414
(dp2108
g481
F0.09374050812882659
ssI431
(dp2109
g481
F0.10391650373712168
ssI432
(dp2110
g481
F0.1785065404136608
ssI433
(dp2111
g481
F0.19294405859847136
ssI434
(dp2112
g481
F0.13989153424979692
ssI435
(dp2113
g481
F0.18482875985504174
ssI436
(dp2114
g481
F0.2564426640636612
ssI439
(dp2115
g481
F0.3056740488208307
ssI335
(dp2116
g481
F0.0850548353597016
ssI336
(dp2117
g481
F0.07810259211578857
ssI337
(dp2118
g481
F0.08752751299332838
ssI338
(dp2119
g481
F0.0988037848308922
ssI339
(dp2120
g481
F0.0921080992540872
ssI340
(dp2121
g481
F0.07508223059595011
ssI341
(dp2122
g481
F0.09967844546036111
ssI349
(dp2123
g481
F0.130528765546019
ssI222
g2080
sI223
g2092
sI225
(dp2124
g481
F0.03724506498065705
ssI226
(dp2125
g481
F0.09658187233805646
ssI227
(dp2126
g481
F0.14675827629849839
ssI228
(dp2127
g481
F0.32731958998523775
sssI225
(dp2128
I412
(dp2129
g481
F0.23397763947845934
ssI413
(dp2130
g481
F0.0850104473765337
ssI414
(dp2131
g481
F0.06833766499271426
ssI415
(dp2132
g481
F0.07301801228520592
ssI430
(dp2133
g481
F0.06830537244726688
ssI431
(dp2134
g481
F0.057243392637060575
ssI432
(dp2135
g481
F0.13957212257869886
ssI433
(dp2136
g481
F0.18727675520201514
ssI434
(dp2137
g481
F0.18322728987491738
ssI352
(dp2138
g481
F0.12691263824150326
ssI329
(dp2139
g481
F0.08696499481445609
ssI335
(dp2140
g481
F0.10731470112456223
ssI336
(dp2141
g481
F0.0951943031679093
ssI337
(dp2142
g481
F0.07372787680478932
ssI338
(dp2143
g481
F0.06939004074919039
ssI339
(dp2144
g481
F0.06234411004275448
ssI340
(dp2145
g481
F0.08370927565867625
ssI341
(dp2146
g481
F0.12126825490129833
ssI223
g2093
sI224
g2124
sI226
(dp2147
g481
F0.04122970882300199
ssI227
(dp2148
g481
F0.11163529758624666
ssI228
(dp2149
g481
F0.2726999510042199
sssI226
(dp2150
I224
g2125
sI225
g2147
sI227
(dp2151
g481
F0.06637010774704072
ssI228
(dp2152
g481
F0.17976652080082897
ssI415
(dp2153
g481
F0.12113395440683566
ssI412
(dp2154
g481
F0.16566564305034592
ssI431
(dp2155
g481
F0.1080120901525742
ssI413
(dp2156
g481
F0.079080853413794
ssI432
(dp2157
g481
F0.21632911169951627
ssI433
(dp2158
g481
F0.27393489354410333
ssI339
(dp2159
g481
F0.0878893594186847
ssI340
(dp2160
g481
F0.11901921743601156
ssI341
(dp2161
g481
F0.1404768843982587
ssI414
(dp2162
g481
F0.11131972020863304
ssI410
(dp2163
g481
F0.26284431031032857
ssI411
(dp2164
g481
F0.37759917774272483
ssI252
(dp2165
g481
F0.2627237689313311
ssI253
(dp2166
g481
F0.23334607663085707
ssI222
g2081
sI223
g2094
ssI227
(dp2167
I224
g2126
sI225
g2148
sI226
g2151
sI228
(dp2168
g481
F0.09036071363491147
ssI229
(dp2169
g481
F0.36794647437159056
ssI230
(dp2170
g481
F0.5032878509462487
ssI412
(dp2171
g481
F0.1087152818520304
ssI341
(dp2172
g481
F0.20622467308366593
ssI413
(dp2173
g481
F0.09374463226061094
ssI339
(dp2174
g481
F0.20188745626444632
ssI254
(dp2175
g481
F0.3240056484212497
ssI414
(dp2176
g481
F0.12350900867468993
ssI439
(dp2177
g481
F0.4042004121577833
ssI410
(dp2178
g481
F0.2672379652625282
ssI411
(dp2179
g481
F0.271013496847385
ssI252
(dp2180
g481
F0.20110002714979291
ssI253
(dp2181
g481
F0.18555726242719245
ssI222
g2082
sI223
g2095
ssI228
(dp2182
I224
g2127
sI225
g2149
sI226
g2152
sI227
g2168
sI260
(dp2183
g481
F0.4934589595090394
ssI229
(dp2184
g481
F0.15705123099695403
ssI230
(dp2185
g481
F0.3543862942318162
ssI412
(dp2186
g481
F0.1700521309021209
ssI259
(dp2187
g481
F0.5065902186208842
ssI261
(dp2188
g481
F0.3913127071560119
ssI408
(dp2189
g481
F0.25727252879032647
ssI409
(dp2190
g481
F0.27763426383841144
ssI410
(dp2191
g481
F0.1634796286611159
ssI411
(dp2192
g481
F0.1843011493248867
ssI341
(dp2193
g481
F0.27413582167910433
ssI413
(dp2194
g481
F0.22163347588859791
ssI222
g2083
sI223
g2096
ssI229
(dp2195
I258
(dp2196
g481
F0.42150442348016154
ssI227
g2169
sI228
g2184
sI230
(dp2197
g481
F0.1440654505333724
ssI231
(dp2198
g481
F0.359620784920319
ssI232
(dp2199
g481
F0.3996581801675931
ssI409
(dp2200
g481
F0.2518136566251428
ssI408
(dp2201
g481
F0.2972823143259644
ssI260
(dp2202
g481
F0.5078478030815206
ssI410
(dp2203
g481
F0.26887219849940086
ssI411
(dp2204
g481
F0.17451159606301542
ssI412
(dp2205
g481
F0.34871983482026175
sssI230
(dp2206
I227
g2170
sI228
g2185
sI229
g2197
sI231
(dp2207
g481
F0.14817695022781183
ssI232
(dp2208
g481
F0.2853731130811676
ssI411
(dp2209
g481
F0.3280290413887284
ssI412
(dp2210
g481
F0.4616282516798359
ssI443
(dp2211
g481
F0.44438308026503853
ssI254
(dp2212
g481
F0.3507904271221144
sssI231
(dp2213
I256
(dp2214
g481
F0.42756435192403025
ssI443
(dp2215
g481
F0.44618123920715724
ssI229
g2198
sI230
g2207
sI232
(dp2216
g481
F0.1010077638637428
ssI233
(dp2217
g481
F0.1842304161960432
ssI234
(dp2218
g481
F0.35660190537141584
ssI411
(dp2219
g481
F0.4969522288570664
ssI254
(dp2220
g481
F0.4082634046468437
ssI255
(dp2221
g481
F0.4718927339531185
sssI232
(dp2222
I256
(dp2223
g481
F0.16581070313903348
ssI257
(dp2224
g481
F0.3012771426978445
ssI258
(dp2225
g481
F0.41854284076079934
ssI229
g2199
sI230
g2208
sI231
g2216
sI233
(dp2226
g481
F0.06912807247549306
ssI234
(dp2227
g481
F0.22526584960457316
ssI235
(dp2228
g481
F0.2392105013871102
ssI236
(dp2229
g481
F0.23512952906061022
ssI237
(dp2230
g481
F0.30373920517817954
ssI238
(dp2231
g481
F0.38425320036968985
ssI411
(dp2232
g481
F0.35966485265208825
ssI254
(dp2233
g481
F0.3436206957093074
ssI255
(dp2234
g481
F0.2376890798456093
sssI233
(dp2235
I256
(dp2236
g481
F0.18762766732369854
ssI257
(dp2237
g481
F0.37488784450012247
ssI231
g2217
sI232
g2226
sI234
(dp2238
g481
F0.10715764660445815
ssI235
(dp2239
g481
F0.15321650553977695
ssI236
(dp2240
g481
F0.1804746372635439
ssI237
(dp2241
g481
F0.27481298723469844
ssI238
(dp2242
g481
F0.3191700107326459
ssI411
(dp2243
g481
F0.4807643097439586
ssI254
(dp2244
g481
F0.3424525622895043
ssI255
(dp2245
g481
F0.27736750120589226
sssI234
(dp2246
I256
(dp2247
g481
F0.32308420498659846
ssI257
(dp2248
g481
F0.5026792115902273
ssI231
g2218
sI232
g2227
sI233
g2238
sI235
(dp2249
g481
F0.09982095964929255
ssI236
(dp2250
g481
F0.26363442918180036
sssI235
(dp2251
I256
(dp2252
g481
F0.19492197194841288
ssI257
(dp2253
g481
F0.3185645124868789
ssI232
g2228
sI233
g2239
sI234
g2249
sI236
(dp2254
g481
F0.09308479116982575
ssI237
(dp2255
g481
F0.31161240773183185
ssI255
(dp2256
g481
F0.4000142451650852
sssI236
(dp2257
I256
(dp2258
g481
F0.10605497866188447
ssI257
(dp2259
g481
F0.21005220834306101
ssI232
g2229
sI233
g2240
sI234
g2250
sI235
g2254
sI237
(dp2260
g481
F0.08895874581313186
ssI238
(dp2261
g481
F0.28585166084300534
ssI310
(dp2262
g481
F0.38778340001349954
ssI314
(dp2263
g481
F0.4382461839877891
ssI254
(dp2264
g481
F0.39666079653831493
ssI255
(dp2265
g481
F0.1859756955083723
sssI237
(dp2266
I256
(dp2267
g481
F0.1464510861380937
ssI257
(dp2268
g481
F0.2486178322039574
ssI232
g2230
sI233
g2241
sI235
g2255
sI236
g2260
sI238
(dp2269
g481
F0.11098099848786691
ssI239
(dp2270
g481
F0.29906650561260006
ssI307
(dp2271
g481
F0.33833697694635956
ssI310
(dp2272
g481
F0.22471139842536492
ssI311
(dp2273
g481
F0.25662277303855147
ssI313
(dp2274
g481
F0.2427466928222425
ssI314
(dp2275
g481
F0.21680696867112817
ssI412
(dp2276
g481
F0.36717191446673997
ssI253
(dp2277
g481
F0.362193799324374
ssI254
(dp2278
g481
F0.17882060267689404
ssI255
(dp2279
g481
F0.0869878821983849
sssI238
(dp2280
I256
(dp2281
g481
F0.3736377692136673
ssI412
(dp2282
g481
F0.3001965219391289
ssI232
g2231
sI201
g1971
sI311
(dp2283
g481
F0.3640812044565587
ssI236
g2261
sI237
g2269
sI239
(dp2284
g481
F0.09598287753800364
ssI240
(dp2285
g481
F0.2282936527465768
ssI310
(dp2286
g481
F0.45562161658256983
ssI233
g2242
sI314
(dp2287
g481
F0.2791305857521061
ssI315
(dp2288
g481
F0.3531378978648602
ssI252
(dp2289
g481
F0.3481019236098174
ssI253
(dp2290
g481
F0.18580435362573422
ssI254
(dp2291
g481
F0.09447185817933534
ssI255
(dp2292
g481
F0.20667441864209607
sssI239
(dp2293
I315
(dp2294
g481
F0.2531551801654089
ssI201
g1969
sI202
g1985
sI237
g2270
sI238
g2284
sI413
(dp2295
g481
F0.234212657371408
ssI240
(dp2296
g481
F0.07784793180497426
ssI241
(dp2297
g481
F0.15488060635194467
ssI412
(dp2298
g481
F0.21889775949550214
ssI311
(dp2299
g481
F0.3369322757039116
ssI314
(dp2300
g481
F0.2880111442291198
ssI251
(dp2301
g481
F0.16805999615199782
ssI252
(dp2302
g481
F0.12974994386135727
ssI253
(dp2303
g481
F0.07398424973504761
ssI254
(dp2304
g481
F0.13178836976875002
ssI255
(dp2305
g481
F0.3715433148999785
sssI240
(dp2306
I64
g1015
sI201
g1970
sI202
g1986
sI203
g1994
sI238
g2285
sI239
g2296
sI241
(dp2307
g481
F0.04518657844970169
ssI242
(dp2308
g481
F0.09095125738857886
ssI243
(dp2309
g481
F0.11347109809614885
ssI244
(dp2310
g481
F0.2010300634485359
ssI445
(dp2311
g481
F0.42359203058310935
ssI250
(dp2312
g481
F0.1762533462504643
ssI251
(dp2313
g481
F0.11753488760797376
ssI252
(dp2314
g481
F0.08362898066818832
ssI253
(dp2315
g481
F0.14103656522532976
ssI254
(dp2316
g481
F0.240135076126657
ssI442
(dp2317
g481
F0.37708447956063573
sssI241
(dp2318
I64
g1016
sI65
g1026
sI202
g1987
sI203
g1995
sI239
g2297
sI240
g2307
sI242
(dp2319
g481
F0.028034367806102214
ssI243
(dp2320
g481
F0.04839964523420077
ssI244
(dp2321
g481
F0.13988159393657892
ssI245
(dp2322
g481
F0.1710781906089964
ssI246
(dp2323
g481
F0.1586482435464624
ssI249
(dp2324
g481
F0.1355937950364655
ssI250
(dp2325
g481
F0.11021664848915261
ssI251
(dp2326
g481
F0.07921310687949529
ssI252
(dp2327
g481
F0.07168585161995199
ssI253
(dp2328
g481
F0.1855966580071498
sssI242
(dp2329
I64
g1017
sI65
g1027
sI66
g1038
sI202
g1988
sI203
g1996
sI240
g2308
sI241
g2319
sI243
(dp2330
g481
F0.037834207412417685
ssI244
(dp2331
g481
F0.16079514909976175
ssI245
(dp2332
g481
F0.1961525606992558
ssI246
(dp2333
g481
F0.16881095675515828
ssI249
(dp2334
g481
F0.14239689926942112
ssI250
(dp2335
g481
F0.13735714533611265
ssI251
(dp2336
g481
F0.1281125417350514
ssI252
(dp2337
g481
F0.12261555441101923
ssI63
g992
ssI243
(dp2338
I240
g2309
sI241
g2320
sI242
g2330
sI244
(dp2339
g481
F0.07466782562682155
ssI245
(dp2340
g481
F0.10467042607411339
ssI246
(dp2341
g481
F0.1001465661816111
ssI247
(dp2342
g481
F0.17938241222027435
ssI249
(dp2343
g481
F0.14014418848326554
ssI251
(dp2344
g481
F0.12191713457008427
sssI244
(dp2345
I240
g2310
sI241
g2321
sI242
g2331
sI243
g2339
sI245
(dp2346
g481
F0.07071281124924263
ssI246
(dp2347
g481
F0.11587913227553792
ssI247
(dp2348
g481
F0.20616086926945815
ssI251
(dp2349
g481
F0.19354764037231323
sssI245
(dp2350
I241
g2322
sI242
g2332
sI243
g2340
sI244
g2346
sI246
(dp2351
g481
F0.04181791019917385
ssI247
(dp2352
g481
F0.11345948075610697
ssI248
(dp2353
g481
F0.15851336802201313
sssI246
(dp2354
I417
(dp2355
g481
F0.26732120598833103
ssI241
g2323
sI242
g2333
sI243
g2341
sI244
g2347
sI245
g2351
sI247
(dp2356
g481
F0.0845863948738297
ssI248
(dp2357
g481
F0.08736572977370737
ssI249
(dp2358
g481
F0.11773206753341675
sssI247
(dp2359
I416
(dp2360
g481
F0.18078781860152435
ssI417
(dp2361
g481
F0.2112018811771871
ssI418
(dp2362
g481
F0.2419291701467361
ssI419
(dp2363
g481
F0.307526304655486
ssI243
g2342
sI244
g2348
sI245
g2352
sI246
g2356
sI248
(dp2364
g481
F0.041792118266422866
ssI249
(dp2365
g481
F0.09180326231286058
ssI250
(dp2366
g481
F0.13975662863519492
ssI251
(dp2367
g481
F0.148310576977943
sssI248
(dp2368
I416
(dp2369
g481
F0.17925262614462628
ssI417
(dp2370
g481
F0.22124834113316152
ssI418
(dp2371
g481
F0.23731766294862808
ssI245
g2353
sI246
g2357
sI247
g2364
sI249
(dp2372
g481
F0.058665463725780034
ssI250
(dp2373
g481
F0.1118469821341385
ssI251
(dp2374
g481
F0.15064615401687467
sssI249
(dp2375
I416
(dp2376
g481
F0.12903289448664945
ssI417
(dp2377
g481
F0.18706127955018156
ssI433
(dp2378
g481
F0.14310193486476538
ssI432
(dp2379
g481
F0.18591288349190324
ssI241
g2324
sI242
g2334
sI243
g2343
sI246
g2358
sI247
g2365
sI248
g2372
sI250
(dp2380
g481
F0.03230746143353315
ssI251
(dp2381
g481
F0.07608326649318674
ssI252
(dp2382
g481
F0.11325993728873261
ssI415
(dp2383
g481
F0.13994637913373933
sssI250
(dp2384
I416
(dp2385
g481
F0.07284330138881871
ssI417
(dp2386
g481
F0.12648904474771125
ssI435
(dp2387
g481
F0.1271719164485719
ssI433
(dp2388
g481
F0.09697676062145401
ssI434
(dp2389
g481
F0.11015968350496728
ssI431
(dp2390
g481
F0.16171512286807818
ssI240
g2312
sI241
g2325
sI242
g2335
sI432
(dp2391
g481
F0.1301904005437877
ssI438
(dp2392
g481
F0.177136780724829
ssI247
g2366
sI248
g2373
sI249
g2380
sI251
(dp2393
g481
F0.03105023742182809
ssI252
(dp2394
g481
F0.06710802992849661
ssI253
(dp2395
g481
F0.19258000314686158
ssI414
(dp2396
g481
F0.0715561905068573
ssI415
(dp2397
g481
F0.07949296126025396
sssI251
(dp2398
I413
(dp2399
g481
F0.1468896425257419
ssI414
(dp2400
g481
F0.061955368448423385
ssI415
(dp2401
g481
F0.06521134213708284
ssI416
(dp2402
g481
F0.06796342902552116
ssI417
(dp2403
g481
F0.11169021395775718
ssI429
(dp2404
g481
F0.19456566739637235
ssI431
(dp2405
g481
F0.15816519248691185
ssI432
(dp2406
g481
F0.1469124245522152
ssI433
(dp2407
g481
F0.12465932454117257
ssI438
(dp2408
g481
F0.18764197674097438
ssI239
g2301
sI240
g2313
sI241
g2326
sI242
g2336
sI243
g2344
sI244
g2349
sI247
g2367
sI248
g2374
sI249
g2381
sI250
g2393
sI252
(dp2409
g481
F0.02979631144266108
ssI253
(dp2410
g481
F0.11478131800745182
sssI252
(dp2411
I412
(dp2412
g481
F0.223300010844738
ssI413
(dp2413
g481
F0.1419948631375797
ssI414
(dp2414
g481
F0.08088222879954146
ssI415
(dp2415
g481
F0.10471794566089519
ssI416
(dp2416
g481
F0.11881023815336839
ssI432
(dp2417
g481
F0.19584816086489806
ssI433
(dp2418
g481
F0.16194258546701812
ssI438
(dp2419
g481
F0.18840412318500444
ssI439
(dp2420
g481
F0.23677620382207856
ssI441
(dp2421
g481
F0.28451311184487843
ssI442
(dp2422
g481
F0.47056836387363427
ssI226
g2165
sI227
g2180
sI238
g2289
sI239
g2302
sI240
g2314
sI241
g2327
sI242
g2337
sI249
g2382
sI250
g2394
sI251
g2409
sI253
(dp2423
g481
F0.07035712592651783
ssI254
(dp2424
g481
F0.25368814579068405
sssI253
(dp2425
I226
g2166
sI227
g2181
sI412
(dp2426
g481
F0.10542544709220159
ssI411
(dp2427
g481
F0.3140596071158054
ssI237
g2277
sI238
g2290
sI239
g2303
sI240
g2315
sI241
g2328
sI415
(dp2428
g481
F0.14630011374588262
ssI414
(dp2429
g481
F0.1304944009627799
ssI311
(dp2430
g481
F0.2728026741543031
ssI250
g2395
sI251
g2410
sI252
g2423
sI413
(dp2431
g481
F0.09622008303397624
ssI254
(dp2432
g481
F0.10276713218589334
ssI255
(dp2433
g481
F0.34330145913158033
sssI254
(dp2434
I256
(dp2435
g481
F0.3822577477989134
ssI227
g2175
sI230
g2212
sI231
g2220
sI232
g2233
sI233
g2244
sI236
g2264
sI237
g2278
sI238
g2291
sI239
g2304
sI240
g2316
sI412
(dp2436
g481
F0.1424573114184395
ssI311
(dp2437
g481
F0.3378589699197738
ssI413
(dp2438
g481
F0.2765468912958319
ssI410
(dp2439
g481
F0.4171223172510495
ssI411
(dp2440
g481
F0.19582670120025816
ssI252
g2424
sI253
g2432
sI414
(dp2441
g481
F0.3907444738492309
ssI255
(dp2442
g481
F0.14539675677112687
sssI255
(dp2443
I256
(dp2444
g481
F0.09404829364135485
ssI257
(dp2445
g481
F0.1617711077834163
ssI258
(dp2446
g481
F0.19020760396078268
ssI259
(dp2447
g481
F0.2910788624669589
ssI231
g2221
sI232
g2234
sI233
g2245
sI235
g2256
sI236
g2265
sI237
g2279
sI238
g2292
sI239
g2305
sI307
(dp2448
g481
F0.24844160437469695
ssI310
(dp2449
g481
F0.19808451870970534
ssI311
(dp2450
g481
F0.23712777512808417
ssI413
(dp2451
g481
F0.4858580767557118
ssI410
(dp2452
g481
F0.25962785520212855
ssI411
(dp2453
g481
F0.12874038833745977
ssI412
(dp2454
g481
F0.2435594853526604
ssI253
g2433
sI254
g2442
ssI256
(dp2455
I257
(dp2456
g481
F0.07088747020568288
ssI258
(dp2457
g481
F0.18019488490430255
ssI231
g2214
sI232
g2223
sI233
g2236
sI234
g2247
sI235
g2252
sI236
g2258
sI237
g2267
sI238
g2281
sI307
(dp2458
g481
F0.3886324703887453
ssI310
(dp2459
g481
F0.3159029504505253
ssI411
(dp2460
g481
F0.29700047271018043
ssI254
g2435
sI255
g2444
ssI257
(dp2461
I256
g2456
sI258
(dp2462
g481
F0.07336579384098102
ssI259
(dp2463
g481
F0.1921213822252036
ssI232
g2224
sI233
g2237
sI234
g2248
sI235
g2253
sI236
g2259
sI237
g2268
sI307
(dp2464
g481
F0.2784915168662156
ssI409
(dp2465
g481
F0.27796185537821083
ssI410
(dp2466
g481
F0.38087332839986787
ssI411
(dp2467
g481
F0.30347103961433586
ssI255
g2445
ssI258
(dp2468
I256
g2457
sI257
g2462
sI259
(dp2469
g481
F0.07524717955869265
ssI260
(dp2470
g481
F0.13786370109208412
ssI229
g2196
sI232
g2225
sI303
(dp2471
g481
F0.18409856637365954
ssI304
(dp2472
g481
F0.2591472473262901
ssI307
(dp2473
g481
F0.20681250429147857
ssI261
(dp2474
g481
F0.29020151326290433
ssI408
(dp2475
g481
F0.2978357187261569
ssI409
(dp2476
g481
F0.13867673745106693
ssI410
(dp2477
g481
F0.197602087012178
ssI411
(dp2478
g481
F0.21063714387229054
ssI255
g2446
ssI259
(dp2479
I257
g2463
sI258
g2469
sI228
g2187
sI261
(dp2480
g481
F0.12749050580854068
ssI299
(dp2481
g481
F0.1271156018149084
ssI300
(dp2482
g481
F0.10743972539628949
ssI303
(dp2483
g481
F0.07963391827731021
ssI304
(dp2484
g481
F0.10240950370074754
ssI307
(dp2485
g481
F0.10864770455299358
ssI409
(dp2486
g481
F0.10990384692811708
ssI408
(dp2487
g481
F0.22194806058210836
ssI260
(dp2488
g481
F0.050572726855653095
ssI410
(dp2489
g481
F0.13097010903752956
ssI411
(dp2490
g481
F0.25898506243283953
ssI412
(dp2491
g481
F0.49346842973623173
ssI255
g2447
ssI260
(dp2492
I258
g2470
sI259
g2488
sI228
g2183
sI229
g2202
sI262
(dp2493
g481
F0.09992127178610126
ssI298
(dp2494
g481
F0.15047521668224453
ssI299
(dp2495
g481
F0.1097092021339614
ssI300
(dp2496
g481
F0.10490043391756748
ssI303
(dp2497
g481
F0.10997995895547752
ssI304
(dp2498
g481
F0.13946418998157578
ssI407
(dp2499
g481
F0.14675924267121288
ssI408
(dp2500
g481
F0.1407521914783566
ssI409
(dp2501
g481
F0.09184507795866098
ssI410
(dp2502
g481
F0.15156855563878674
ssI411
(dp2503
g481
F0.31261450725677536
ssI261
(dp2504
g481
F0.06460273727002089
sssI261
(dp2505
I409
(dp2506
g481
F0.14081552351545137
ssI258
g2474
sI259
g2480
sI260
g2504
sI262
(dp2507
g481
F0.0334420109241916
ssI263
(dp2508
g481
F0.09587344733074857
ssI297
(dp2509
g481
F0.10120349216025609
ssI298
(dp2510
g481
F0.0658974126608556
ssI299
(dp2511
g481
F0.06240609179216257
ssI300
(dp2512
g481
F0.10678730262841918
ssI406
(dp2513
g481
F0.13733704161183552
ssI407
(dp2514
g481
F0.11055737482394162
ssI408
(dp2515
g481
F0.12097915442125978
ssI228
g2188
sI410
(dp2516
g481
F0.13466029443035413
sssI262
(dp2517
I260
g2493
sI261
g2507
sI263
(dp2518
g481
F0.05021880484004686
ssI264
(dp2519
g481
F0.10611860314174268
ssI297
(dp2520
g481
F0.08118362492905408
ssI298
(dp2521
g481
F0.051787331861443506
ssI299
(dp2522
g481
F0.06194744169643122
ssI296
(dp2523
g481
F0.12959027617067093
ssI405
(dp2524
g481
F0.147868356576469
ssI406
(dp2525
g481
F0.08368899068197234
ssI407
(dp2526
g481
F0.09091992350925011
ssI408
(dp2527
g481
F0.15011445259829778
ssI409
(dp2528
g481
F0.18287820449902653
sssI263
(dp2529
I343
(dp2530
g481
F0.2952908287008665
ssI407
(dp2531
g481
F0.15053944467376065
ssI261
g2508
sI262
g2518
sI295
(dp2532
g481
F0.10151734409503692
ssI264
(dp2533
g481
F0.03734362314532024
ssI265
(dp2534
g481
F0.06865068868281435
ssI266
(dp2535
g481
F0.19586635844135114
ssI299
(dp2536
g481
F0.10884506699400684
ssI296
(dp2537
g481
F0.06710286685093905
ssI404
(dp2538
g481
F0.3989863139845271
ssI405
(dp2539
g481
F0.13628673987135786
ssI406
(dp2540
g481
F0.09131232062120193
ssI297
(dp2541
g481
F0.04110480639315817
ssI376
(dp2542
g481
F0.10660347510003428
ssI377
(dp2543
g481
F0.11083974846220072
ssI379
(dp2544
g481
F0.14050905567291447
ssI348
(dp2545
g481
F0.23032502268295668
ssI298
(dp2546
g481
F0.07110964464936895
ssI408
(dp2547
g481
F0.22159494085947054
sssI264
(dp2548
I407
(dp2549
g481
F0.19958662444485983
ssI262
g2519
sI294
(dp2550
g481
F0.20650110562857743
ssI295
(dp2551
g481
F0.1372185472585203
ssI296
(dp2552
g481
F0.10415506966272538
ssI265
(dp2553
g481
F0.055551670200438975
ssI266
(dp2554
g481
F0.18727510194321745
ssI263
g2533
sI402
(dp2555
g481
F0.45959824435379854
ssI403
(dp2556
g481
F0.38157494472045916
ssI404
(dp2557
g481
F0.4029771190000551
ssI405
(dp2558
g481
F0.11847742493129627
ssI406
(dp2559
g481
F0.1309698372561918
ssI297
(dp2560
g481
F0.08242455213531792
ssI379
(dp2561
g481
F0.17404607592313334
ssI298
(dp2562
g481
F0.10901814005619503
sssI265
(dp2563
I263
g2534
sI264
g2553
sI266
(dp2564
g481
F0.08769081894107271
ssI267
(dp2565
g481
F0.43195069330340546
ssI399
(dp2566
g481
F0.4389928523305404
ssI401
(dp2567
g481
F0.46458051002324047
ssI402
(dp2568
g481
F0.2924542629211817
ssI403
(dp2569
g481
F0.28653863513721395
ssI404
(dp2570
g481
F0.3662321955632509
ssI405
(dp2571
g481
F0.17486458787812958
ssI406
(dp2572
g481
F0.15729849250725184
ssI292
(dp2573
g481
F0.16803722079413022
ssI293
(dp2574
g481
F0.12437106463594678
ssI294
(dp2575
g481
F0.11313918910238686
ssI295
(dp2576
g481
F0.07423093034002345
ssI296
(dp2577
g481
F0.08027738379314257
ssI297
(dp2578
g481
F0.09410113935522778
ssI343
(dp2579
g481
F0.2733660382792282
ssI346
(dp2580
g481
F0.24964647280613356
ssI348
(dp2581
g481
F0.16320234439865292
ssI379
(dp2582
g481
F0.10839577516922096
ssI380
(dp2583
g481
F0.13898517838050048
ssI381
(dp2584
g481
F0.15675919939912397
sssI266
(dp2585
I263
g2535
sI264
g2554
sI265
g2564
sI267
(dp2586
g481
F0.2470723502155524
ssI268
(dp2587
g481
F0.3886556801144654
ssI399
(dp2588
g481
F0.3108371518923557
ssI400
(dp2589
g481
F0.3941940000778548
ssI401
(dp2590
g481
F0.31521054280356703
ssI402
(dp2591
g481
F0.1796116470185498
ssI403
(dp2592
g481
F0.26221881587054124
ssI404
(dp2593
g481
F0.32049650037483807
ssI405
(dp2594
g481
F0.2245941730170749
ssI406
(dp2595
g481
F0.2090783203688893
ssI292
(dp2596
g481
F0.21338345172896525
ssI293
(dp2597
g481
F0.18626468161108542
ssI295
(dp2598
g481
F0.1589956090668574
ssI343
(dp2599
g481
F0.3058944064784651
ssI345
(dp2600
g481
F0.43111697797434245
ssI346
(dp2601
g481
F0.2184372931346394
ssI347
(dp2602
g481
F0.25363783213882446
ssI348
(dp2603
g481
F0.2054462663820209
ssI381
(dp2604
g481
F0.19511016936327494
sssI267
(dp2605
I265
g2565
sI266
g2586
sI268
(dp2606
g481
F0.13371158518443363
ssI399
(dp2607
g481
F0.27990135143297173
ssI400
(dp2608
g481
F0.3051148351546495
ssI401
(dp2609
g481
F0.17949880614823724
ssI402
(dp2610
g481
F0.1411210557303048
ssI403
(dp2611
g481
F0.4038458886696568
ssI404
(dp2612
g481
F0.33072651972036954
ssI405
(dp2613
g481
F0.43848188944834454
ssI406
(dp2614
g481
F0.45123189408745124
ssI343
(dp2615
g481
F0.43674243325997575
ssI345
(dp2616
g481
F0.3762573971843087
ssI346
(dp2617
g481
F0.3152004948589414
sssI268
(dp2618
I266
g2587
sI267
g2606
sI269
(dp2619
g481
F0.247180411215176
ssI270
(dp2620
g481
F0.4671037090534223
ssI401
(dp2621
g481
F0.2732529170553803
ssI402
(dp2622
g481
F0.22445375939502182
ssI404
(dp2623
g481
F0.40951284494097734
ssI345
(dp2624
g481
F0.43529712857241265
ssI346
(dp2625
g481
F0.39458712556846676
sssI269
(dp2626
I268
g2619
sI270
(dp2627
g481
F0.19601274860271461
ssI271
(dp2628
g481
F0.4032343610474185
sssI270
(dp2629
I272
(dp2630
g481
F0.2181732585278893
ssI268
g2620
sI269
g2627
sI271
(dp2631
g481
F0.11538412383462959
sssI271
(dp2632
I272
(dp2633
g481
F0.10425641291737664
ssI273
(dp2634
g481
F0.20736041727038815
ssI274
(dp2635
g481
F0.39867155145977107
ssI269
g2628
sI270
g2631
ssI272
(dp2636
I273
(dp2637
g481
F0.04846001788235645
ssI274
(dp2638
g481
F0.12505438231287283
ssI275
(dp2639
g481
F0.19894527934415968
ssI270
g2630
sI271
g2633
ssI273
(dp2640
I271
g2634
sI272
g2637
sI274
(dp2641
g481
F0.052660316601659415
ssI275
(dp2642
g481
F0.1158387087737636
ssI276
(dp2643
g481
F0.21582064025334777
ssI282
(dp2644
g481
F0.49995861763229227
sssI274
(dp2645
I271
g2635
sI272
g2638
sI273
g2641
sI275
(dp2646
g481
F0.041718412939911874
ssI276
(dp2647
g481
F0.08942402501347779
ssI277
(dp2648
g481
F0.16966643795794337
ssI281
(dp2649
g481
F0.3721074834687267
sssI275
(dp2650
I272
g2639
sI273
g2642
sI274
g2646
sI276
(dp2651
g481
F0.038305895253722265
ssI277
(dp2652
g481
F0.10027181756165664
ssI278
(dp2653
g481
F0.21166941255343885
ssI280
(dp2654
g481
F0.2558206979044579
sssI276
(dp2655
I273
g2643
sI274
g2647
sI275
g2651
sI277
(dp2656
g481
F0.036832438812157524
ssI278
(dp2657
g481
F0.1314103558682947
ssI279
(dp2658
g481
F0.21135325817806755
ssI280
(dp2659
g481
F0.1724297558739291
ssI281
(dp2660
g481
F0.22969223697382612
sssI277
(dp2661
I274
g2648
sI275
g2652
sI276
g2656
sI278
(dp2662
g481
F0.03586688745702736
ssI279
(dp2663
g481
F0.10004741721890965
ssI280
(dp2664
g481
F0.10682888735124592
ssI281
(dp2665
g481
F0.18481821925679817
sssI278
(dp2666
I275
g2653
sI276
g2657
sI277
g2662
sI279
(dp2667
g481
F0.03195280544673484
ssI280
(dp2668
g481
F0.0723400481782582
ssI281
(dp2669
g481
F0.14534230144295596
sssI279
(dp2670
I276
g2658
sI277
g2663
sI278
g2667
sI280
(dp2671
g481
F0.03011475934075095
ssI281
(dp2672
g481
F0.08571290413764499
ssI282
(dp2673
g481
F0.19170990059669557
sssI280
(dp2674
I275
g2654
sI276
g2659
sI277
g2664
sI278
g2668
sI279
g2671
sI281
(dp2675
g481
F0.03406869295629204
ssI282
(dp2676
g481
F0.11302366095458603
sssI281
(dp2677
I274
g2649
sI276
g2660
sI277
g2665
sI278
g2669
sI279
g2672
sI280
g2675
sI282
(dp2678
g481
F0.04591714031144016
ssI283
(dp2679
g481
F0.10832961436696122
sssI282
(dp2680
I273
g2644
sI279
g2673
sI280
g2676
sI281
g2678
sI283
(dp2681
g481
F0.03784076914582463
ssI284
(dp2682
g481
F0.14015714858976078
sssI283
(dp2683
I281
g2679
sI282
g2681
sI284
(dp2684
g481
F0.06254383571880746
ssI285
(dp2685
g481
F0.14544397676630128
ssI286
(dp2686
g481
F0.2254534980862781
sssI284
(dp2687
I282
g2682
sI283
g2684
sI285
(dp2688
g481
F0.06412108965849249
ssI286
(dp2689
g481
F0.13583539717040247
ssI287
(dp2690
g481
F0.19292309489105774
sssI285
(dp2691
I288
(dp2692
g481
F0.32500837142445993
ssI283
g2685
sI284
g2688
sI286
(dp2693
g481
F0.05569017462634309
ssI287
(dp2694
g481
F0.13811262711239244
sssI286
(dp2695
I288
(dp2696
g481
F0.25146523940361354
ssI289
(dp2697
g481
F0.39475269833785587
ssI283
g2686
sI284
g2689
sI285
g2693
sI287
(dp2698
g481
F0.07853596011739386
sssI287
(dp2699
I288
(dp2700
g481
F0.13192533308816068
ssI289
(dp2701
g481
F0.20519405493791082
ssI284
g2690
sI285
g2694
sI286
g2698
ssI288
(dp2702
I289
(dp2703
g481
F0.12271649482809263
ssI290
(dp2704
g481
F0.27660025724711795
ssI285
g2692
sI286
g2696
sI287
g2700
ssI289
(dp2705
I288
g2703
sI290
(dp2706
g481
F0.0913829815180853
ssI291
(dp2707
g481
F0.33121399500148285
ssI292
(dp2708
g481
F0.49158941968201747
ssI286
g2697
sI287
g2701
ssI290
(dp2709
I288
g2704
sI289
g2706
sI291
(dp2710
g481
F0.12244375002935584
ssI292
(dp2711
g481
F0.2759879381908319
ssI293
(dp2712
g481
F0.4409678921093997
ssI294
(dp2713
g481
F0.38229566100371154
sssI291
(dp2714
I289
g2707
sI290
g2710
sI292
(dp2715
g481
F0.08022649064748891
ssI293
(dp2716
g481
F0.14002584099529283
ssI294
(dp2717
g481
F0.11768640629480849
ssI295
(dp2718
g481
F0.15038556767812672
sssI292
(dp2719
I289
g2708
sI290
g2711
sI291
g2715
sI293
(dp2720
g481
F0.053463135189654475
ssI294
(dp2721
g481
F0.058510937036769975
ssI295
(dp2722
g481
F0.078556914542455
ssI265
g2573
sI266
g2596
sI398
(dp2723
g481
F0.22949981749096232
ssI399
(dp2724
g481
F0.2104441626566067
ssI400
(dp2725
g481
F0.26599547334760454
ssI401
(dp2726
g481
F0.23454810549277774
ssI402
(dp2727
g481
F0.2564351923219616
ssI380
(dp2728
g481
F0.07949709158623672
ssI381
(dp2729
g481
F0.08162014136162138
sssI293
(dp2730
I290
g2712
sI291
g2716
sI292
g2720
sI294
(dp2731
g481
F0.029667548483945125
ssI295
(dp2732
g481
F0.0529078249855493
ssI265
g2574
sI266
g2597
sI398
(dp2733
g481
F0.26691324472778094
ssI399
(dp2734
g481
F0.2725666302120812
ssI380
(dp2735
g481
F0.03970356534148896
ssI379
(dp2736
g481
F0.052732256744726924
ssI348
(dp2737
g481
F0.06689190462851922
ssI381
(dp2738
g481
F0.0463851649613747
ssI382
(dp2739
g481
F0.10523836008828538
ssI383
(dp2740
g481
F0.19653170358049393
sssI294
(dp2741
I290
g2713
sI291
g2717
sI292
g2721
sI293
g2731
sI295
(dp2742
g481
F0.02629785831884275
ssI264
g2550
sI265
g2575
sI296
(dp2743
g481
F0.06612994333357125
ssI380
(dp2744
g481
F0.03348589362081993
ssI378
(dp2745
g481
F0.050752932941927266
ssI379
(dp2746
g481
F0.028965630653162537
ssI348
(dp2747
g481
F0.06907627463536199
ssI381
(dp2748
g481
F0.05620585951705653
ssI382
(dp2749
g481
F0.11831726575138224
sssI295
(dp2750
I291
g2718
sI292
g2722
sI293
g2732
sI294
g2742
sI263
g2532
sI264
g2551
sI265
g2576
sI266
g2598
sI381
(dp2751
g481
F0.07582944134133995
ssI296
(dp2752
g481
F0.021583610030892028
ssI380
(dp2753
g481
F0.0503830251262595
ssI297
(dp2754
g481
F0.058221161175042814
ssI377
(dp2755
g481
F0.07372794097001528
ssI378
(dp2756
g481
F0.038848506124759936
ssI379
(dp2757
g481
F0.02914548237078483
ssI348
(dp2758
g481
F0.08600107943439139
ssI349
(dp2759
g481
F0.0846293369287226
ssI350
(dp2760
g481
F0.058296661623800906
sssI296
(dp2761
I262
g2523
sI294
g2743
sI295
g2752
sI264
g2552
sI265
g2577
sI298
(dp2762
g481
F0.07609895985114695
ssI263
g2537
sI381
(dp2763
g481
F0.13993006246644157
ssI380
(dp2764
g481
F0.09295965175745594
ssI297
(dp2765
g481
F0.020000113407140287
ssI376
(dp2766
g481
F0.0653057602755136
ssI377
(dp2767
g481
F0.04136083899976869
ssI378
(dp2768
g481
F0.034561189761532364
ssI379
(dp2769
g481
F0.04935126683053739
ssI348
(dp2770
g481
F0.1411021116656067
ssI349
(dp2771
g481
F0.13707771245245565
ssI350
(dp2772
g481
F0.08370428538662833
ssI351
(dp2773
g481
F0.09479513759561425
sssI297
(dp2774
I299
(dp2775
g481
F0.08205102527120985
ssI407
(dp2776
g481
F0.2197302967636699
ssI261
g2509
sI262
g2520
sI295
g2754
sI264
g2560
sI265
g2578
sI298
(dp2777
g481
F0.03731720390218547
ssI263
g2541
sI296
g2765
sI405
(dp2778
g481
F0.24399507586477
ssI406
(dp2779
g481
F0.17069478834412155
ssI375
(dp2780
g481
F0.10251284948596422
ssI376
(dp2781
g481
F0.047239946880864234
ssI377
(dp2782
g481
F0.039629951771950785
ssI378
(dp2783
g481
F0.053343171125915315
ssI379
(dp2784
g481
F0.08203329721480673
ssI348
(dp2785
g481
F0.19243158577149566
ssI350
(dp2786
g481
F0.11713434523500849
ssI351
(dp2787
g481
F0.12378359576296427
sssI298
(dp2788
I260
g2494
sI261
g2510
sI262
g2521
sI263
g2546
sI264
g2562
sI297
g2777
sI299
(dp2789
g481
F0.021692636124659652
ssI300
(dp2790
g481
F0.0717468781990953
ssI301
(dp2791
g481
F0.07202099942772205
ssI296
g2762
sI407
(dp2792
g481
F0.19048440290784432
ssI374
(dp2793
g481
F0.07846865102712752
ssI375
(dp2794
g481
F0.046653294825254515
ssI376
(dp2795
g481
F0.030286278024851544
ssI377
(dp2796
g481
F0.06950012495093762
ssI378
(dp2797
g481
F0.11345026709962526
sssI299
(dp2798
I259
g2481
sI260
g2495
sI261
g2511
sI262
g2522
sI263
g2536
sI297
g2775
sI298
g2789
sI300
(dp2799
g481
F0.03110877229879367
ssI301
(dp2800
g481
F0.04338625258901803
ssI302
(dp2801
g481
F0.07331069738512838
ssI303
(dp2802
g481
F0.0941150879462877
ssI304
(dp2803
g481
F0.06068491000663127
ssI355
(dp2804
g481
F0.1624005406445544
ssI373
(dp2805
g481
F0.1656909672528987
ssI374
(dp2806
g481
F0.06994486581140312
ssI375
(dp2807
g481
F0.05111344256644623
ssI376
(dp2808
g481
F0.05770645689519988
ssI377
(dp2809
g481
F0.11105346263246671
sssI300
(dp2810
I259
g2482
sI260
g2496
sI261
g2512
sI298
g2790
sI299
g2799
sI301
(dp2811
g481
F0.023670324071388856
ssI302
(dp2812
g481
F0.03298382296940245
ssI303
(dp2813
g481
F0.04314818391301654
ssI304
(dp2814
g481
F0.04857558067060407
ssI305
(dp2815
g481
F0.06897600777214788
ssI372
(dp2816
g481
F0.3081167182009157
ssI373
(dp2817
g481
F0.13165169717236516
ssI374
(dp2818
g481
F0.06263965221822813
ssI375
(dp2819
g481
F0.08919129318756247
ssI376
(dp2820
g481
F0.11536934024645916
sssI301
(dp2821
I376
(dp2822
g481
F0.09231601671376197
ssI355
(dp2823
g481
F0.17035174601906858
ssI369
(dp2824
g481
F0.40883414784996447
ssI298
g2791
sI299
g2800
sI300
g2811
sI370
(dp2825
g481
F0.5038377682851262
ssI302
(dp2826
g481
F0.03232943922482203
ssI303
(dp2827
g481
F0.06336275997898126
ssI304
(dp2828
g481
F0.0347388417524871
ssI305
(dp2829
g481
F0.041359845054078255
ssI306
(dp2830
g481
F0.09024804808632195
ssI307
(dp2831
g481
F0.1182254893958052
ssI372
(dp2832
g481
F0.3004765290284617
ssI373
(dp2833
g481
F0.13780862825242463
ssI374
(dp2834
g481
F0.07649343283438077
ssI375
(dp2835
g481
F0.0807395449246645
ssI371
(dp2836
g481
F0.45764553732088603
sssI302
(dp2837
I369
(dp2838
g481
F0.4445228015413069
ssI299
g2801
sI300
g2812
sI301
g2826
sI303
(dp2839
g481
F0.021781266652403423
ssI304
(dp2840
g481
F0.04678132815356647
ssI305
(dp2841
g481
F0.047580564113826884
ssI306
(dp2842
g481
F0.04878089867032654
ssI307
(dp2843
g481
F0.09700289940209321
ssI372
(dp2844
g481
F0.3241552386000721
ssI373
(dp2845
g481
F0.16459712423916445
ssI374
(dp2846
g481
F0.09748107066989273
ssI375
(dp2847
g481
F0.11759830812308357
ssI371
(dp2848
g481
F0.46350357546616455
sssI303
(dp2849
I258
g2471
sI259
g2483
sI260
g2497
sI299
g2802
sI300
g2813
sI301
g2827
sI302
g2839
sI304
(dp2850
g481
F0.04439492302953173
ssI305
(dp2851
g481
F0.06052114233142046
ssI306
(dp2852
g481
F0.03396805211703024
ssI307
(dp2853
g481
F0.06590027757837127
ssI308
(dp2854
g481
F0.1487408893254438
ssI309
(dp2855
g481
F0.11289239820036417
ssI374
(dp2856
g481
F0.11532378676309982
sssI304
(dp2857
I258
g2472
sI259
g2484
sI260
g2498
sI374
(dp2858
g481
F0.10071088129661554
ssI299
g2803
sI300
g2814
sI301
g2828
sI302
g2840
sI303
g2850
sI305
(dp2859
g481
F0.017425140693169177
ssI306
(dp2860
g481
F0.05195903003305379
ssI307
(dp2861
g481
F0.04749905541272792
ssI308
(dp2862
g481
F0.05915795959093004
ssI309
(dp2863
g481
F0.0688955460957774
ssI310
(dp2864
g481
F0.13096854629584606
ssI375
(dp2865
g481
F0.10017015256499541
ssI355
(dp2866
g481
F0.14005676358162888
sssI305
(dp2867
I355
(dp2868
g481
F0.1507839229176621
ssI358
(dp2869
g481
F0.12682521214424328
ssI300
g2815
sI301
g2829
sI302
g2841
sI303
g2851
sI304
g2859
sI369
(dp2870
g481
F0.4549142861071738
ssI306
(dp2871
g481
F0.03931199348802754
ssI307
(dp2872
g481
F0.05524448316812
ssI308
(dp2873
g481
F0.05157882257279814
ssI309
(dp2874
g481
F0.04845582608851863
ssI310
(dp2875
g481
F0.11443106310319343
sssI306
(dp2876
I301
g2830
sI302
g2842
sI303
g2852
sI304
g2860
sI305
g2871
sI307
(dp2877
g481
F0.03172980958877104
ssI308
(dp2878
g481
F0.09339198226044151
ssI309
(dp2879
g481
F0.05077538259966813
ssI310
(dp2880
g481
F0.07778904439684399
ssI311
(dp2881
g481
F0.18508470820837078
ssI312
(dp2882
g481
F0.1872596476996921
sssI307
(dp2883
I256
g2458
sI257
g2464
sI258
g2473
sI259
g2485
sI237
g2271
sI302
g2843
sI301
g2831
sI304
g2861
sI305
g2872
sI306
g2877
sI308
(dp2884
g481
F0.04637167919139041
ssI309
(dp2885
g481
F0.03767395353626293
ssI310
(dp2886
g481
F0.052326004219496035
ssI311
(dp2887
g481
F0.1111329261359638
ssI312
(dp2888
g481
F0.1264826188204068
ssI303
g2853
sI255
g2448
ssI308
(dp2889
I355
(dp2890
g481
F0.11722434605365449
ssI356
(dp2891
g481
F0.13929145354026312
ssI358
(dp2892
g481
F0.08138217069671992
ssI326
(dp2893
g481
F0.15075828038687597
ssI360
(dp2894
g481
F0.0627926603789513
ssI303
g2854
sI304
g2862
sI305
g2873
sI306
g2878
sI307
g2884
sI309
(dp2895
g481
F0.027323242731888124
ssI310
(dp2896
g481
F0.07490972835805268
ssI311
(dp2897
g481
F0.058949298867639055
ssI312
(dp2898
g481
F0.05601054748434446
ssI313
(dp2899
g481
F0.11615484539547571
sssI309
(dp2900
I360
(dp2901
g481
F0.09073983802004754
ssI303
g2855
sI304
g2863
sI305
g2874
sI306
g2879
sI307
g2885
sI308
g2895
sI310
(dp2902
g481
F0.030891558734800123
ssI311
(dp2903
g481
F0.06803156591357634
ssI312
(dp2904
g481
F0.06258755482375554
ssI313
(dp2905
g481
F0.07623770242109223
ssI314
(dp2906
g481
F0.1690405333898244
ssI315
(dp2907
g481
F0.22543542614711523
sssI310
(dp2908
I256
g2459
sI236
g2262
sI237
g2272
sI238
g2286
sI304
g2864
sI305
g2875
sI306
g2880
sI307
g2886
sI308
g2896
sI309
g2902
sI311
(dp2909
g481
F0.058738279669419295
ssI312
(dp2910
g481
F0.08048053008090357
ssI313
(dp2911
g481
F0.05772918949659916
ssI314
(dp2912
g481
F0.12623210748244423
ssI315
(dp2913
g481
F0.22017419907249636
ssI255
g2449
ssI311
(dp2914
I237
g2273
sI238
g2283
sI239
g2299
sI306
g2881
sI307
g2887
sI308
g2897
sI309
g2903
sI310
g2909
sI312
(dp2915
g481
F0.020696920298872726
ssI313
(dp2916
g481
F0.05805684893935299
ssI314
(dp2917
g481
F0.07482499793356455
ssI315
(dp2918
g481
F0.08651346623044077
ssI316
(dp2919
g481
F0.10151516697691128
ssI253
g2430
sI254
g2437
sI255
g2450
ssI312
(dp2920
I324
(dp2921
g481
F0.09589542425910765
ssI325
(dp2922
g481
F0.13410866841674862
ssI360
(dp2923
g481
F0.06482027621987314
ssI361
(dp2924
g481
F0.10971731712039245
ssI306
g2882
sI307
g2888
sI308
g2898
sI309
g2904
sI310
g2910
sI311
g2915
sI313
(dp2925
g481
F0.04369697856125191
ssI314
(dp2926
g481
F0.07598769668741011
ssI315
(dp2927
g481
F0.06949130754578872
ssI316
(dp2928
g481
F0.06941930164702416
ssI317
(dp2929
g481
F0.17359339322437423
ssI319
(dp2930
g481
F0.21142195967813993
sssI313
(dp2931
I320
(dp2932
g481
F0.2792359417492903
ssI237
g2274
sI308
g2899
sI309
g2905
sI310
g2911
sI311
g2916
sI312
g2925
sI314
(dp2933
g481
F0.04064818509713498
ssI315
(dp2934
g481
F0.10981935871739873
ssI316
(dp2935
g481
F0.07461355649759044
ssI317
(dp2936
g481
F0.14480645376578172
ssI318
(dp2937
g481
F0.27161237514905856
ssI319
(dp2938
g481
F0.25427957854701094
sssI314
(dp2939
I236
g2263
sI237
g2275
sI238
g2287
sI239
g2300
sI309
g2906
sI310
g2912
sI311
g2917
sI312
g2926
sI313
g2933
sI315
(dp2940
g481
F0.055683242647644404
ssI316
(dp2941
g481
F0.05368719466979976
ssI317
(dp2942
g481
F0.08560563087390306
ssI318
(dp2943
g481
F0.18103001943762623
ssI319
(dp2944
g481
F0.19788624387448794
sssI315
(dp2945
I320
(dp2946
g481
F0.19682194256966698
ssI324
(dp2947
g481
F0.12833323259863055
ssI238
g2288
sI239
g2294
sI309
g2907
sI310
g2913
sI311
g2918
sI312
g2927
sI313
g2934
sI314
g2940
sI316
(dp2948
g481
F0.028731092724473255
ssI317
(dp2949
g481
F0.0901947532887459
ssI318
(dp2950
g481
F0.12190514936575154
ssI319
(dp2951
g481
F0.12715350554633903
sssI316
(dp2952
I320
(dp2953
g481
F0.2022536032081405
ssI321
(dp2954
g481
F0.21330022891665903
ssI322
(dp2955
g481
F0.1886797754750669
ssI323
(dp2956
g481
F0.17314013576361645
ssI324
(dp2957
g481
F0.16452439847649475
ssI311
g2919
sI312
g2928
sI313
g2935
sI314
g2941
sI315
g2948
sI317
(dp2958
g481
F0.05766212980877918
ssI318
(dp2959
g481
F0.13796550831403975
ssI319
(dp2960
g481
F0.14940272707772928
sssI317
(dp2961
I320
(dp2962
g481
F0.268987165251985
ssI312
g2929
sI313
g2936
sI314
g2942
sI315
g2949
sI316
g2958
sI318
(dp2963
g481
F0.09047391386859673
ssI319
(dp2964
g481
F0.18820056352378203
sssI318
(dp2965
I320
(dp2966
g481
F0.2512232203040752
ssI321
(dp2967
g481
F0.25484582830164887
ssI322
(dp2968
g481
F0.2579902862375657
ssI313
g2937
sI314
g2943
sI315
g2950
sI316
g2959
sI317
g2963
sI319
(dp2969
g481
F0.10270266375188852
sssI319
(dp2970
I320
(dp2971
g481
F0.11778658213903635
ssI321
(dp2972
g481
F0.17762709245198086
ssI322
(dp2973
g481
F0.1756831308726389
ssI323
(dp2974
g481
F0.20452043679158483
ssI324
(dp2975
g481
F0.20894822196296223
ssI427
(dp2976
g481
F0.23114167155380783
ssI312
g2930
sI313
g2938
sI314
g2944
sI315
g2951
sI316
g2960
sI317
g2964
sI318
g2969
ssI320
(dp2977
I321
(dp2978
g481
F0.14332637178130872
ssI322
(dp2979
g481
F0.16817021364902773
ssI323
(dp2980
g481
F0.21756848834027878
ssI313
g2932
sI315
g2946
sI316
g2953
sI317
g2962
sI318
g2966
sI319
g2971
ssI321
(dp2981
I320
g2978
sI322
(dp2982
g481
F0.06248596953801445
ssI323
(dp2983
g481
F0.11522827165869802
ssI324
(dp2984
g481
F0.143965154280737
ssI361
(dp2985
g481
F0.24146283457189446
ssI426
(dp2986
g481
F0.17096178257054337
ssI425
(dp2987
g481
F0.17548285441372827
ssI316
g2954
sI318
g2967
sI319
g2972
ssI322
(dp2988
I320
g2979
sI321
g2982
sI323
(dp2989
g481
F0.03166902353774827
ssI324
(dp2990
g481
F0.052667541797084494
ssI325
(dp2991
g481
F0.08578388484459262
ssI360
(dp2992
g481
F0.12471934976056032
ssI361
(dp2993
g481
F0.18424238386113218
ssI426
(dp2994
g481
F0.057920353229928855
ssI427
(dp2995
g481
F0.07166945896567929
ssI424
(dp2996
g481
F0.219044369959775
ssI425
(dp2997
g481
F0.0638748569305933
ssI316
g2955
sI318
g2968
sI319
g2973
ssI323
(dp2998
I320
g2980
sI321
g2983
sI322
g2989
sI324
(dp2999
g481
F0.013510122620815196
ssI325
(dp3000
g481
F0.03532978172131428
ssI359
(dp3001
g481
F0.054712358205572485
ssI360
(dp3002
g481
F0.05524379027697216
ssI361
(dp3003
g481
F0.11354788276040623
ssI362
(dp3004
g481
F0.3169722082803594
ssI427
(dp3005
g481
F0.0627134562182544
ssI428
(dp3006
g481
F0.07901118545127506
ssI424
(dp3007
g481
F0.22555954662449465
ssI425
(dp3008
g481
F0.06357196264892644
ssI316
g2956
sI426
(dp3009
g481
F0.03914146118973618
ssI319
g2974
ssI324
(dp3010
I321
g2984
sI322
g2990
sI323
g2999
sI325
(dp3011
g481
F0.01766838626235544
ssI326
(dp3012
g481
F0.03647753468262856
ssI359
(dp3013
g481
F0.045747537015513026
ssI360
(dp3014
g481
F0.050275526737456534
ssI361
(dp3015
g481
F0.11223414217344492
ssI426
(dp3016
g481
F0.040900499402378804
ssI427
(dp3017
g481
F0.05234980818859861
ssI428
(dp3018
g481
F0.05898192294551385
ssI429
(dp3019
g481
F0.06562630127662594
ssI425
(dp3020
g481
F0.07580603633768347
ssI312
g2921
sI358
(dp3021
g481
F0.06904044564006355
ssI315
g2947
sI316
g2957
sI319
g2975
ssI325
(dp3022
I417
(dp3023
g481
F0.1323659327066669
ssI322
g2991
sI323
g3000
sI324
g3011
sI357
(dp3024
g481
F0.045845626363631334
ssI326
(dp3025
g481
F0.011326920933577154
ssI327
(dp3026
g481
F0.029624262800978855
ssI360
(dp3027
g481
F0.06291135143382821
ssI361
(dp3028
g481
F0.13793950817240594
ssI426
(dp3029
g481
F0.04434544979177052
ssI359
(dp3030
g481
F0.036458556424448195
ssI428
(dp3031
g481
F0.04088472789305125
ssI429
(dp3032
g481
F0.04556872966629167
ssI430
(dp3033
g481
F0.0736105896538857
ssI312
g2922
sI356
(dp3034
g481
F0.042032785961315475
ssI358
(dp3035
g481
F0.048850745185142146
ssI427
(dp3036
g481
F0.05442991175922624
sssI326
(dp3037
I417
(dp3038
g481
F0.1331188092481226
ssI355
(dp3039
g481
F0.0636841397246868
ssI324
g3012
sI325
g3025
sI358
(dp3040
g481
F0.046404145242049916
ssI327
(dp3041
g481
F0.015431181892922375
ssI328
(dp3042
g481
F0.04775329200559417
ssI359
(dp3043
g481
F0.0434400359496544
ssI428
(dp3044
g481
F0.04687602090595016
ssI429
(dp3045
g481
F0.04392390500362119
ssI430
(dp3046
g481
F0.06312636409878822
ssI431
(dp3047
g481
F0.11467876885195519
ssI360
(dp3048
g481
F0.07634191673212733
ssI308
g2893
sI356
(dp3049
g481
F0.02803865876393841
ssI415
(dp3050
g481
F0.16728775675127763
ssI427
(dp3051
g481
F0.07133570917293552
ssI357
(dp3052
g481
F0.0343566112871754
sssI327
(dp3053
I352
(dp3054
g481
F0.07092003819864928
ssI353
(dp3055
g481
F0.051879674819236485
ssI354
(dp3056
g481
F0.08825133682427272
ssI355
(dp3057
g481
F0.07660919245101175
ssI356
(dp3058
g481
F0.0324023941797256
ssI325
g3026
sI326
g3041
sI359
(dp3059
g481
F0.07710352546103716
ssI328
(dp3060
g481
F0.017047954120881028
ssI329
(dp3061
g481
F0.06891572476512384
ssI330
(dp3062
g481
F0.13675967652155757
ssI428
(dp3063
g481
F0.04001029519215371
ssI429
(dp3064
g481
F0.03907799167191152
ssI430
(dp3065
g481
F0.040547873080745186
ssI431
(dp3066
g481
F0.0822240520753311
ssI358
(dp3067
g481
F0.07580211412417906
ssI357
(dp3068
g481
F0.04371771366424089
sssI328
(dp3069
I352
(dp3070
g481
F0.0668111006775954
ssI353
(dp3071
g481
F0.0548057272265484
ssI354
(dp3072
g481
F0.11180678795023151
ssI355
(dp3073
g481
F0.10438237864097315
ssI356
(dp3074
g481
F0.054412603728806345
ssI357
(dp3075
g481
F0.07242110790121611
ssI326
g3042
sI327
g3060
sI329
(dp3076
g481
F0.03464529130305583
ssI330
(dp3077
g481
F0.09866832298985469
ssI331
(dp3078
g481
F0.1023608391288929
ssI429
(dp3079
g481
F0.05361430537229045
ssI430
(dp3080
g481
F0.03753606538833531
ssI431
(dp3081
g481
F0.0698424664969416
ssI432
(dp3082
g481
F0.20211424876046158
ssI337
(dp3083
g481
F0.06956325473121838
ssI338
(dp3084
g481
F0.061450781620556776
ssI351
(dp3085
g481
F0.07676525427716754
sssI329
(dp3086
I352
(dp3087
g481
F0.11166182235031444
ssI225
g2139
sI356
(dp3088
g481
F0.12879591317583927
ssI432
(dp3089
g481
F0.16550358333858414
ssI327
g3061
sI328
g3076
sI330
(dp3090
g481
F0.04422638758686138
ssI331
(dp3091
g481
F0.048967542461256994
ssI332
(dp3092
g481
F0.07682813637887931
ssI429
(dp3093
g481
F0.0775807113177515
ssI430
(dp3094
g481
F0.045953523279060556
ssI353
(dp3095
g481
F0.11236345114587719
ssI336
(dp3096
g481
F0.09855754608049085
ssI337
(dp3097
g481
F0.052709825943981894
ssI338
(dp3098
g481
F0.060408496379522364
ssI416
(dp3099
g481
F0.10036808927966026
ssI431
(dp3100
g481
F0.06172260176553567
sssI330
(dp3101
I327
g3062
sI328
g3077
sI329
g3090
sI331
(dp3102
g481
F0.04647176541984932
ssI332
(dp3103
g481
F0.08375801313130835
ssI430
(dp3104
g481
F0.10048532793192173
ssI431
(dp3105
g481
F0.11257282175185614
ssI336
(dp3106
g481
F0.11495468609551471
ssI337
(dp3107
g481
F0.08766017264484276
sssI331
(dp3108
I328
g3078
sI329
g3091
sI330
g3102
sI332
(dp3109
g481
F0.031438279364006776
ssI333
(dp3110
g481
F0.04671499859757918
ssI334
(dp3111
g481
F0.05335134432120468
ssI336
(dp3112
g481
F0.07271784894332031
ssI337
(dp3113
g481
F0.05098855404309069
sssI332
(dp3114
I329
g3092
sI330
g3103
sI331
g3109
sI333
(dp3115
g481
F0.012090282281229676
ssI334
(dp3116
g481
F0.037228423035115484
ssI335
(dp3117
g481
F0.05005642877716797
ssI336
(dp3118
g481
F0.03913272149548596
ssI337
(dp3119
g481
F0.055589854673666436
ssI338
(dp3120
g481
F0.09140257414812221
sssI333
(dp3121
I386
(dp3122
g481
F0.0559039552325421
ssI331
g3110
sI332
g3115
sI334
(dp3123
g481
F0.01897461345141931
ssI335
(dp3124
g481
F0.031775401551967945
ssI336
(dp3125
g481
F0.03164435333028011
ssI337
(dp3126
g481
F0.04978412734469365
ssI338
(dp3127
g481
F0.08211132889609712
sssI334
(dp3128
I385
(dp3129
g481
F0.07327978312473678
ssI386
(dp3130
g481
F0.08507930150849834
ssI331
g3111
sI332
g3116
sI333
g3123
sI335
(dp3131
g481
F0.027367225284665852
ssI336
(dp3132
g481
F0.041400970382216955
ssI337
(dp3133
g481
F0.030203525187470933
ssI338
(dp3134
g481
F0.04279638172898617
ssI339
(dp3135
g481
F0.07412282757553021
ssI340
(dp3136
g481
F0.07259875740267856
ssI349
(dp3137
g481
F0.07728072094378866
ssI350
(dp3138
g481
F0.11801821853450874
sssI335
(dp3139
I224
g2116
sI225
g2140
sI386
(dp3140
g481
F0.06490473554509461
ssI387
(dp3141
g481
F0.10755534030479477
ssI388
(dp3142
g481
F0.13409462777590903
ssI385
(dp3143
g481
F0.06604238778787919
ssI332
g3117
sI333
g3124
sI334
g3131
sI434
(dp3144
g481
F0.11175879701091164
ssI336
(dp3145
g481
F0.023286016272850475
ssI337
(dp3146
g481
F0.05994810329521339
ssI338
(dp3147
g481
F0.0834711313479961
ssI339
(dp3148
g481
F0.12059868107272194
ssI340
(dp3149
g481
F0.11730202266905466
ssI341
(dp3150
g481
F0.1694805673048801
ssI433
(dp3151
g481
F0.1935500273658027
ssI349
(dp3152
g481
F0.13327808793866963
ssI350
(dp3153
g481
F0.19148581615288532
ssI223
g2098
ssI336
(dp3154
I224
g2117
sI225
g2141
sI433
(dp3155
g481
F0.16587071717586332
ssI329
g3096
sI330
g3106
sI331
g3112
sI332
g3118
sI333
g3125
sI334
g3132
sI335
g3145
sI432
(dp3156
g481
F0.15732228026547962
ssI337
(dp3157
g481
F0.04631149491636207
ssI338
(dp3158
g481
F0.08812491299361591
ssI339
(dp3159
g481
F0.1281892393317102
ssI340
(dp3160
g481
F0.13409128804084883
ssI431
(dp3161
g481
F0.10544677392169167
ssI434
(dp3162
g481
F0.11342636540103455
sssI337
(dp3163
I224
g2118
sI225
g2142
sI432
(dp3164
g481
F0.16420018322296978
ssI353
(dp3165
g481
F0.12214387052451246
ssI328
g3083
sI329
g3097
sI330
g3107
sI331
g3113
sI332
g3119
sI333
g3126
sI334
g3133
sI335
g3146
sI336
g3157
sI352
(dp3166
g481
F0.1056005127546915
ssI338
(dp3167
g481
F0.021671743611734542
ssI339
(dp3168
g481
F0.05360065887254039
ssI340
(dp3169
g481
F0.07243815370675644
ssI431
(dp3170
g481
F0.07164058037297785
ssI349
(dp3171
g481
F0.07736076539007178
ssI350
(dp3172
g481
F0.0945093306973095
ssI351
(dp3173
g481
F0.09813132731346176
sssI338
(dp3174
I224
g2119
sI225
g2143
sI353
(dp3175
g481
F0.08319858241682795
ssI328
g3084
sI329
g3098
sI431
(dp3176
g481
F0.08331453782245231
ssI332
g3120
sI333
g3127
sI334
g3134
sI335
g3147
sI336
g3158
sI337
g3167
sI339
(dp3177
g481
F0.0189879777526737
ssI340
(dp3178
g481
F0.046527962952442756
ssI341
(dp3179
g481
F0.09963616927915041
ssI352
(dp3180
g481
F0.06648565686889087
ssI379
(dp3181
g481
F0.07743431147039509
ssI348
(dp3182
g481
F0.07238535110280682
ssI349
(dp3183
g481
F0.03676893016205087
ssI350
(dp3184
g481
F0.044202402411318495
ssI351
(dp3185
g481
F0.05152271702104494
sssI339
(dp3186
I224
g2120
sI225
g2144
sI226
g2159
sI227
g2174
sI379
(dp3187
g481
F0.06817519173327921
ssI431
(dp3188
g481
F0.10041296653296639
ssI334
g3135
sI335
g3148
sI336
g3159
sI337
g3168
sI338
g3177
sI340
(dp3189
g481
F0.029859808676254103
ssI341
(dp3190
g481
F0.06721359202476464
ssI352
(dp3191
g481
F0.06113430061292261
ssI351
(dp3192
g481
F0.05099488904720298
ssI348
(dp3193
g481
F0.05705362034084171
ssI349
(dp3194
g481
F0.031647060255986445
ssI350
(dp3195
g481
F0.0356670449890596
ssI223
g2100
ssI340
(dp3196
I224
g2121
sI225
g2145
sI226
g2160
sI379
(dp3197
g481
F0.09711265033228668
ssI351
(dp3198
g481
F0.09056063326318918
ssI380
(dp3199
g481
F0.07876667641449348
ssI334
g3136
sI335
g3149
sI336
g3160
sI337
g3169
sI338
g3178
sI339
g3189
sI350
(dp3200
g481
F0.06641711564647847
ssI341
(dp3201
g481
F0.025342237017088827
ssI342
(dp3202
g481
F0.10424225599704375
ssI381
(dp3203
g481
F0.06036848131055118
ssI347
(dp3204
g481
F0.06014760415131728
ssI348
(dp3205
g481
F0.045129396191214505
ssI349
(dp3206
g481
F0.0358668256757502
ssI222
g2084
sI223
g2101
ssI341
(dp3207
I224
g2122
sI225
g2146
sI226
g2161
sI227
g2172
sI228
g2193
sI335
g3150
sI338
g3179
sI339
g3190
sI340
g3201
sI350
(dp3208
g481
F0.10309125472078987
ssI342
(dp3209
g481
F0.04138332728505031
ssI343
(dp3210
g481
F0.19863399407269244
ssI346
(dp3211
g481
F0.09374541781145064
ssI347
(dp3212
g481
F0.04728756381873044
ssI348
(dp3213
g481
F0.04870561259493875
ssI349
(dp3214
g481
F0.06240964459841003
ssI222
g2085
sI223
g2102
ssI342
(dp3215
I381
(dp3216
g481
F0.11265033801346577
ssI340
g3202
sI341
g3209
sI406
(dp3217
g481
F0.4170695832008374
ssI343
(dp3218
g481
F0.11156579004713309
ssI344
(dp3219
g481
F0.46792363679560467
ssI345
(dp3220
g481
F0.18394961132101897
ssI346
(dp3221
g481
F0.050288939899579624
ssI347
(dp3222
g481
F0.05980679317295572
ssI348
(dp3223
g481
F0.0883588942925856
ssI349
(dp3224
g481
F0.12461408856770932
ssI222
g2086
sI223
g2103
ssI343
(dp3225
I406
(dp3226
g481
F0.2940440421913925
ssI263
g2530
sI265
g2579
sI266
g2599
sI267
g2615
sI408
(dp3227
g481
F0.4548443038502306
ssI341
g3210
sI342
g3218
sI407
(dp3228
g481
F0.4116656810833413
ssI344
(dp3229
g481
F0.2011835527280557
ssI345
(dp3230
g481
F0.19327114935041675
ssI346
(dp3231
g481
F0.15099303804364766
ssI347
(dp3232
g481
F0.2380554165952893
ssI348
(dp3233
g481
F0.22548322041550123
ssI405
(dp3234
g481
F0.3482870795654005
sssI344
(dp3235
I345
(dp3236
g481
F0.286403932889106
ssI346
(dp3237
g481
F0.49810740248946717
ssI406
(dp3238
g481
F0.4546026443990641
ssI342
g3219
sI343
g3229
ssI345
(dp3239
I266
g2600
sI267
g2616
sI268
g2624
sI174
g1733
sI399
(dp3240
g481
F0.2919268131063959
ssI84
g1190
sI85
g1199
sI342
g3220
sI343
g3230
sI344
g3236
sI346
(dp3241
g481
F0.13973311798437207
ssI347
(dp3242
g481
F0.281737247221461
ssI348
(dp3243
g481
F0.37434923226271916
sssI346
(dp3244
I265
g2580
sI266
g2601
sI267
g2617
sI268
g2625
sI397
(dp3245
g481
F0.1381314461944632
ssI398
(dp3246
g481
F0.1340243593754673
ssI399
(dp3247
g481
F0.14006108322080327
ssI383
(dp3248
g481
F0.12861050344335806
ssI85
g1200
sI342
g3221
sI343
g3231
sI344
g3237
sI345
g3241
sI396
(dp3249
g481
F0.14819602879521937
ssI347
(dp3250
g481
F0.03691048515032418
ssI348
(dp3251
g481
F0.07278323353777161
ssI381
(dp3252
g481
F0.08051289519244023
ssI382
(dp3253
g481
F0.10644043271147009
ssI341
g3211
ssI347
(dp3254
I384
(dp3255
g481
F0.10620483402787678
ssI385
(dp3256
g481
F0.11353880183183848
ssI380
(dp3257
g481
F0.08425038183172799
ssI266
g2602
sI396
(dp3258
g481
F0.12985493264404363
ssI381
(dp3259
g481
F0.04122163410176772
ssI340
g3204
sI341
g3212
sI342
g3222
sI343
g3232
sI345
g3242
sI346
g3250
sI348
(dp3260
g481
F0.02851562153006198
ssI349
(dp3261
g481
F0.05805577509197418
ssI382
(dp3262
g481
F0.04904954655624942
ssI383
(dp3263
g481
F0.08005606913733754
sssI348
(dp3264
I263
g2545
sI265
g2581
sI266
g2603
sI293
g2737
sI294
g2747
sI295
g2758
sI296
g2770
sI297
g2785
sI338
g3182
sI339
g3193
sI340
g3205
sI341
g3213
sI342
g3223
sI343
g3233
sI345
g3243
sI346
g3251
sI347
g3260
sI349
(dp3265
g481
F0.020472587339389378
ssI350
(dp3266
g481
F0.04462493718567053
ssI379
(dp3267
g481
F0.054050840061242736
ssI380
(dp3268
g481
F0.034407628599852906
ssI381
(dp3269
g481
F0.02185108014501623
ssI382
(dp3270
g481
F0.06221927003350084
ssI383
(dp3271
g481
F0.13351620207043122
sssI349
(dp3272
I224
g2123
sI352
(dp3273
g481
F0.08418100119330751
ssI379
(dp3274
g481
F0.03710105017806196
ssI295
g2759
sI296
g2771
sI380
(dp3275
g481
F0.021270058771080947
ssI382
(dp3276
g481
F0.05632515858097151
ssI334
g3137
sI335
g3152
sI337
g3171
sI338
g3183
sI339
g3194
sI340
g3206
sI341
g3214
sI342
g3224
sI378
(dp3277
g481
F0.08810987600114951
ssI347
g3261
sI348
g3265
sI381
(dp3278
g481
F0.024992547905846024
ssI350
(dp3279
g481
F0.021011022316446068
ssI351
(dp3280
g481
F0.04708642581685731
sssI350
(dp3281
I352
(dp3282
g481
F0.04717708599704075
ssI353
(dp3283
g481
F0.05750643228291883
ssI295
g2760
sI296
g2772
sI297
g2786
sI334
g3138
sI335
g3153
sI337
g3172
sI338
g3184
sI339
g3195
sI340
g3200
sI341
g3208
sI381
(dp3284
g481
F0.052903991563088885
ssI377
(dp3285
g481
F0.07755140386918405
ssI378
(dp3286
g481
F0.03849542558635853
ssI379
(dp3287
g481
F0.015881880286277548
ssI348
g3266
sI349
g3279
sI380
(dp3288
g481
F0.028017204158878248
ssI351
(dp3289
g481
F0.015159069078694123
sssI351
(dp3290
I352
(dp3291
g481
F0.0349876322637363
ssI353
(dp3292
g481
F0.04212839783041447
ssI354
(dp3293
g481
F0.09665474487365115
ssI355
(dp3294
g481
F0.10067231874378295
ssI337
g3173
sI296
g2773
sI297
g2787
sI328
g3085
sI338
g3185
sI339
g3192
sI340
g3198
sI377
(dp3295
g481
F0.06827748426992179
ssI378
(dp3296
g481
F0.03869205481439654
ssI379
(dp3297
g481
F0.03087323945383016
ssI380
(dp3298
g481
F0.05268551077032276
ssI349
g3280
sI350
g3289
ssI352
(dp3299
I225
g2138
sI354
(dp3300
g481
F0.07737248603179636
ssI355
(dp3301
g481
F0.06903137682879751
ssI356
(dp3302
g481
F0.056416660265886584
ssI357
(dp3303
g481
F0.07195624111568023
ssI327
g3054
sI328
g3070
sI329
g3087
sI353
(dp3304
g481
F0.025835713868638508
ssI337
g3166
sI338
g3180
sI339
g3191
sI431
(dp3305
g481
F0.13199525009778698
ssI377
(dp3306
g481
F0.09574907357801565
ssI378
(dp3307
g481
F0.07125236913458544
ssI379
(dp3308
g481
F0.0661976369844835
ssI349
g3273
sI350
g3282
sI351
g3291
ssI353
(dp3309
I352
g3304
sI354
(dp3310
g481
F0.04177421967758939
ssI355
(dp3311
g481
F0.047977576460498474
ssI356
(dp3312
g481
F0.03723634184455222
ssI357
(dp3313
g481
F0.047720594570680015
ssI327
g3055
sI328
g3071
sI329
g3095
sI337
g3165
sI338
g3175
sI377
(dp3314
g481
F0.07643983661662665
ssI350
g3283
sI351
g3292
ssI354
(dp3315
I352
g3300
sI353
g3310
sI355
(dp3316
g481
F0.022067557324929397
ssI356
(dp3317
g481
F0.04366833618319535
ssI357
(dp3318
g481
F0.0447466024770005
ssI358
(dp3319
g481
F0.05690363293678917
ssI327
g3056
sI328
g3072
sI375
(dp3320
g481
F0.14353826774531145
ssI376
(dp3321
g481
F0.10448142901134339
ssI377
(dp3322
g481
F0.0689777958829354
ssI351
g3293
ssI355
(dp3323
I352
g3301
sI353
g3311
sI354
g3316
sI356
(dp3324
g481
F0.024678414864774185
ssI357
(dp3325
g481
F0.03196831363053297
ssI326
g3039
sI327
g3057
sI328
g3073
sI299
g2804
sI301
g2823
sI304
g2866
sI305
g2868
sI308
g2890
sI375
(dp3326
g481
F0.15619309072445942
ssI377
(dp3327
g481
F0.07927052968342271
ssI358
(dp3328
g481
F0.04282356825258455
ssI351
g3294
ssI356
(dp3329
I352
g3302
sI353
g3312
sI354
g3317
sI355
g3324
sI325
g3034
sI326
g3049
sI327
g3058
sI328
g3074
sI329
g3088
sI359
(dp3330
g481
F0.048034734208331174
ssI429
(dp3331
g481
F0.09027185879756174
ssI430
(dp3332
g481
F0.09387680987255426
ssI431
(dp3333
g481
F0.13881505842908803
ssI308
g2891
sI358
(dp3334
g481
F0.036212675272441125
ssI357
(dp3335
g481
F0.014146740779792817
sssI357
(dp3336
I352
g3303
sI353
g3313
sI354
g3318
sI355
g3325
sI356
g3335
sI325
g3024
sI326
g3052
sI327
g3068
sI328
g3075
sI359
(dp3337
g481
F0.03459747041012328
ssI430
(dp3338
g481
F0.1264172796305124
ssI358
(dp3339
g481
F0.021071833543714814
sssI358
(dp3340
I354
g3319
sI355
g3328
sI324
g3021
sI325
g3035
sI326
g3040
sI327
g3067
sI360
(dp3341
g481
F0.03479290259835255
ssI359
(dp3342
g481
F0.010655767531878886
ssI305
g2869
sI308
g2892
sI356
g3334
sI357
g3339
ssI359
(dp3343
I323
g3001
sI356
g3330
sI325
g3030
sI326
g3043
sI327
g3059
sI360
(dp3344
g481
F0.01714126726412314
ssI361
(dp3345
g481
F0.07453861213988776
ssI426
(dp3346
g481
F0.10594066359572017
ssI428
(dp3347
g481
F0.12834814132133143
ssI324
g3013
sI358
g3342
sI357
g3337
ssI360
(dp3348
I322
g2992
sI323
g3002
sI324
g3014
sI325
g3027
sI326
g3048
sI359
g3344
sI361
(dp3349
g481
F0.043202825776688596
ssI362
(dp3350
g481
F0.24872277358649553
ssI364
(dp3351
g481
F0.3483753214373575
ssI308
g2894
sI309
g2901
sI312
g2923
sI358
g3341
sI426
(dp3352
g481
F0.1280304303338169
sssI361
(dp3353
I321
g2985
sI322
g2993
sI323
g3003
sI324
g3015
sI325
g3028
sI359
g3345
sI360
g3349
sI362
(dp3354
g481
F0.17566451533569913
ssI363
(dp3355
g481
F0.4047846546258194
ssI364
(dp3356
g481
F0.3213128994841295
ssI312
g2924
sI426
(dp3357
g481
F0.2039039121803247
sssI362
(dp3358
I323
g3004
sI360
g3350
sI361
g3354
sI363
(dp3359
g481
F0.189294905127291
ssI364
(dp3360
g481
F0.28699629792395853
ssI365
(dp3361
g481
F0.4515155238766584
sssI363
(dp3362
I361
g3355
sI362
g3359
sI364
(dp3363
g481
F0.13869871688235993
ssI365
(dp3364
g481
F0.37639885873594187
sssI364
(dp3365
I360
g3351
sI361
g3356
sI362
g3360
sI363
g3363
sI365
(dp3366
g481
F0.21917348806695827
ssI366
(dp3367
g481
F0.3622688915146288
ssI367
(dp3368
g481
F0.45044021581736576
sssI365
(dp3369
I362
g3361
sI363
g3364
sI364
g3366
sI366
(dp3370
g481
F0.1293462435456156
ssI367
(dp3371
g481
F0.35267523929701267
ssI368
(dp3372
g481
F0.44007766499177897
sssI366
(dp3373
I368
(dp3374
g481
F0.3758484088638579
ssI369
(dp3375
g481
F0.49453464762768207
ssI364
g3367
sI365
g3370
sI367
(dp3376
g481
F0.16513250644662536
sssI367
(dp3377
I364
g3368
sI365
g3371
sI366
g3376
sI368
(dp3378
g481
F0.14340706582719476
ssI369
(dp3379
g481
F0.30881981436421846
ssI370
(dp3380
g481
F0.41364277330992655
sssI368
(dp3381
I365
g3372
sI366
g3374
sI367
g3378
sI369
(dp3382
g481
F0.11722488219598044
ssI370
(dp3383
g481
F0.3098373997553979
ssI371
(dp3384
g481
F0.2697615461741806
sssI369
(dp3385
I301
g2824
sI366
g3375
sI367
g3379
sI368
g3382
sI305
g2870
sI370
(dp3386
g481
F0.1639014221941024
ssI371
(dp3387
g481
F0.21044725241701567
ssI372
(dp3388
g481
F0.19398643657581194
ssI302
g2838
ssI370
(dp3389
I301
g2825
sI367
g3380
sI368
g3383
sI369
g3386
sI371
(dp3390
g481
F0.09323932364625843
ssI372
(dp3391
g481
F0.17926931198217977
sssI371
(dp3392
I301
g2836
sI302
g2848
sI368
g3384
sI369
g3387
sI370
g3390
sI372
(dp3393
g481
F0.11485506096007751
ssI373
(dp3394
g481
F0.4792303297705808
ssI374
(dp3395
g481
F0.43652041800716024
sssI372
(dp3396
I300
g2816
sI301
g2832
sI302
g2844
sI369
g3388
sI370
g3391
sI371
g3393
sI373
(dp3397
g481
F0.25033366366570314
ssI374
(dp3398
g481
F0.2709020481248581
ssI375
(dp3399
g481
F0.4025624064999457
sssI373
(dp3400
I299
g2805
sI300
g2817
sI301
g2833
sI302
g2845
sI371
g3394
sI372
g3397
sI374
(dp3401
g481
F0.06554133549439559
ssI375
(dp3402
g481
F0.17178584128155044
sssI374
(dp3403
I298
g2793
sI299
g2806
sI300
g2818
sI301
g2834
sI302
g2846
sI303
g2856
sI304
g2858
sI371
g3395
sI372
g3398
sI373
g3401
sI375
(dp3404
g481
F0.06028877251920226
ssI376
(dp3405
g481
F0.09197184231943586
ssI377
(dp3406
g481
F0.17590960028756944
sssI375
(dp3407
I354
g3320
sI355
g3326
sI297
g2780
sI298
g2794
sI299
g2807
sI300
g2819
sI301
g2835
sI302
g2847
sI304
g2865
sI372
g3399
sI373
g3402
sI374
g3404
sI376
(dp3408
g481
F0.02917678024195528
ssI377
(dp3409
g481
F0.0852472060578502
sssI376
(dp3410
I354
g3321
sI263
g2542
sI296
g2766
sI297
g2781
sI298
g2795
sI299
g2808
sI300
g2820
sI301
g2822
sI374
g3405
sI375
g3408
sI377
(dp3411
g481
F0.034356919727436486
ssI378
(dp3412
g481
F0.07592377420311108
ssI379
(dp3413
g481
F0.1362880377155737
sssI377
(dp3414
I263
g2543
sI352
g3306
sI354
g3322
sI355
g3327
sI295
g2755
sI296
g2767
sI297
g2782
sI298
g2796
sI299
g2809
sI353
g3314
sI374
g3406
sI375
g3409
sI376
g3411
sI378
(dp3415
g481
F0.021078834072498262
ssI379
(dp3416
g481
F0.056449264888020344
ssI350
g3285
sI351
g3295
ssI378
(dp3417
I352
g3307
sI294
g2745
sI295
g2756
sI296
g2768
sI297
g2783
sI298
g2797
sI376
g3412
sI377
g3415
sI379
(dp3418
g481
F0.018939138172582328
ssI380
(dp3419
g481
F0.060078103459953645
ssI349
g3277
sI350
g3286
sI351
g3296
ssI379
(dp3420
I263
g2544
sI264
g2561
sI265
g2582
sI293
g2736
sI294
g2746
sI295
g2757
sI296
g2769
sI297
g2784
sI338
g3181
sI339
g3187
sI340
g3197
sI348
g3267
sI349
g3274
sI350
g3287
sI351
g3297
sI352
g3308
sI376
g3413
sI377
g3416
sI378
g3418
sI380
(dp3421
g481
F0.019023151017302713
ssI381
(dp3422
g481
F0.0516100146045357
ssI382
(dp3423
g481
F0.12268785582398407
sssI380
(dp3424
I379
g3421
sI292
g2728
sI293
g2735
sI294
g2744
sI295
g2753
sI296
g2764
sI265
g2583
sI381
(dp3425
g481
F0.0208943408575179
ssI383
(dp3426
g481
F0.1664508508959561
ssI340
g3199
sI382
(dp3427
g481
F0.07400658520781636
ssI378
g3419
sI347
g3257
sI348
g3268
sI349
g3275
sI350
g3288
sI351
g3298
ssI381
(dp3428
I384
(dp3429
g481
F0.14923470084918716
ssI379
g3422
sI292
g2729
sI293
g2738
sI294
g2748
sI295
g2751
sI296
g2763
sI265
g2584
sI266
g2604
sI398
(dp3430
g481
F0.1873564742717682
ssI399
(dp3431
g481
F0.1945426423231527
ssI340
g3203
sI382
(dp3432
g481
F0.03859094762241088
ssI342
g3216
sI380
g3425
sI346
g3252
sI347
g3259
sI348
g3269
sI349
g3278
sI350
g3284
sI383
(dp3433
g481
F0.10788035483572558
sssI382
(dp3434
I384
(dp3435
g481
F0.06039026146596864
ssI385
(dp3436
g481
F0.07667933681522078
ssI379
g3423
sI293
g2739
sI294
g2749
sI380
g3427
sI395
(dp3437
g481
F0.11903324941179622
ssI396
(dp3438
g481
F0.11726180969039081
ssI397
(dp3439
g481
F0.12296215009250212
ssI398
(dp3440
g481
F0.12826540071663745
ssI381
g3432
sI346
g3253
sI347
g3262
sI348
g3270
sI349
g3276
sI383
(dp3441
g481
F0.03395972750116265
sssI383
(dp3442
I384
(dp3443
g481
F0.021144641438655232
ssI385
(dp3444
g481
F0.034992632161732214
ssI293
g2740
sI348
g3271
sI394
(dp3445
g481
F0.0730780942409872
ssI395
(dp3446
g481
F0.04619875279692304
ssI396
(dp3447
g481
F0.0452501874206834
ssI397
(dp3448
g481
F0.05768082019253309
ssI398
(dp3449
g481
F0.0911701649792103
ssI399
(dp3450
g481
F0.1359281895418027
ssI87
g1230
sI346
g3248
sI347
g3263
sI380
g3426
sI381
g3433
sI382
g3441
ssI384
(dp3451
I385
(dp3452
g481
F0.008890093742946326
ssI386
(dp3453
g481
F0.025974873103024855
ssI387
(dp3454
g481
F0.059812678059450355
ssI393
(dp3455
g481
F0.037690850474256556
ssI394
(dp3456
g481
F0.036498553369354585
ssI395
(dp3457
g481
F0.026125982201266933
ssI396
(dp3458
g481
F0.04623189990820682
ssI397
(dp3459
g481
F0.07590068851543581
ssI87
g1215
sI89
g1245
sI90
g1260
sI347
g3255
sI381
g3429
sI382
g3435
sI383
g3443
ssI385
(dp3460
I384
g3452
sI386
(dp3461
g481
F0.011665711977359276
ssI387
(dp3462
g481
F0.039786363826119324
ssI388
(dp3463
g481
F0.0765983816471576
ssI392
(dp3464
g481
F0.05676193222901381
ssI393
(dp3465
g481
F0.027031157006540928
ssI394
(dp3466
g481
F0.030640773570009765
ssI395
(dp3467
g481
F0.02813024445436972
ssI396
(dp3468
g481
F0.0545721636484107
ssI334
g3129
sI335
g3143
sI87
g1216
sI90
g1261
sI347
g3256
sI382
g3436
sI383
g3444
ssI386
(dp3469
I384
g3453
sI385
g3461
sI387
(dp3470
g481
F0.017434420548214268
ssI388
(dp3471
g481
F0.046126282431637244
ssI389
(dp3472
g481
F0.10738623645392102
ssI390
(dp3473
g481
F0.08465314396819285
ssI391
(dp3474
g481
F0.051450361823891115
ssI392
(dp3475
g481
F0.03328819016032845
ssI393
(dp3476
g481
F0.015730434106681197
ssI394
(dp3477
g481
F0.0269671043182228
ssI395
(dp3478
g481
F0.03423608011590445
ssI333
g3122
sI334
g3130
sI335
g3140
sI91
g1276
ssI387
(dp3479
I384
g3454
sI385
g3462
sI386
g3470
sI388
(dp3480
g481
F0.017226220718807077
ssI389
(dp3481
g481
F0.05692729373781818
ssI390
(dp3482
g481
F0.04753424585443254
ssI391
(dp3483
g481
F0.03376119053298881
ssI392
(dp3484
g481
F0.02533502317654096
ssI393
(dp3485
g481
F0.019643655271799305
ssI394
(dp3486
g481
F0.026864175465695868
ssI395
(dp3487
g481
F0.041080771763167816
ssI335
g3141
sI90
g1262
sI91
g1277
sI92
g1292
ssI388
(dp3488
I385
g3463
sI386
g3471
sI387
g3480
sI389
(dp3489
g481
F0.0426503212528468
ssI390
(dp3490
g481
F0.04649424405390859
ssI391
(dp3491
g481
F0.04182518177994376
ssI392
(dp3492
g481
F0.049738897150561956
ssI393
(dp3493
g481
F0.0515463763609423
ssI335
g3142
sI434
(dp3494
g481
F0.08951619422839951
ssI435
(dp3495
g481
F0.07216500722386628
ssI436
(dp3496
g481
F0.10736911528775948
sssI389
(dp3497
I386
g3472
sI387
g3481
sI388
g3489
sI390
(dp3498
g481
F0.021612966725822406
ssI391
(dp3499
g481
F0.04967706915608548
ssI392
(dp3500
g481
F0.07858057745186756
ssI74
g1117
sI75
g1119
sI77
g1132
sI78
g1141
sI435
(dp3501
g481
F0.08451387758397012
ssI436
(dp3502
g481
F0.10608844728467266
sssI390
(dp3503
I386
g3473
sI387
g3482
sI388
g3490
sI389
g3498
sI391
(dp3504
g481
F0.01694028193819457
ssI392
(dp3505
g481
F0.05591240151334531
ssI393
(dp3506
g481
F0.06897511371795312
ssI92
g1304
ssI391
(dp3507
I386
g3474
sI387
g3483
sI388
g3491
sI389
g3499
sI390
g3504
sI392
(dp3508
g481
F0.033941968552255175
ssI393
(dp3509
g481
F0.042965174087877506
ssI91
g1284
sI92
g1300
sI93
g1313
ssI392
(dp3510
I385
g3464
sI386
g3475
sI387
g3484
sI388
g3492
sI389
g3500
sI390
g3505
sI391
g3508
sI393
(dp3511
g481
F0.014201936667017995
ssI394
(dp3512
g481
F0.03444840730784535
ssI90
g1270
sI91
g1286
sI92
g1301
sI93
g1311
ssI393
(dp3513
I384
g3455
sI385
g3465
sI386
g3476
sI387
g3485
sI388
g3493
sI390
g3506
sI167
g1702
sI392
g3511
sI394
(dp3514
g481
F0.011941460095144378
ssI391
g3509
sI395
(dp3515
g481
F0.0256441645681435
ssI87
g1225
sI89
g1246
sI90
g1274
sI91
g1287
sI92
g1298
sI93
g1312
ssI394
(dp3516
I384
g3456
sI385
g3466
sI386
g3477
sI387
g3486
sI167
g1701
sI168
g1706
sI393
g3514
sI395
(dp3517
g481
F0.012771696533909036
ssI396
(dp3518
g481
F0.04395641624678424
ssI392
g3512
sI86
g1213
sI87
g1229
sI88
g1243
sI89
g1258
sI90
g1273
sI91
g1283
sI92
g1299
sI383
g3445
ssI395
(dp3519
I384
g3457
sI385
g3467
sI386
g3478
sI387
g3487
sI393
g3515
sI169
g1708
sI394
g3517
sI396
(dp3520
g481
F0.01767627301920458
ssI397
(dp3521
g481
F0.0509440846983147
ssI398
(dp3522
g481
F0.11242994607512978
ssI86
g1202
sI87
g1217
sI88
g1232
sI89
g1247
sI90
g1268
sI91
g1285
sI382
g3437
sI383
g3446
ssI396
(dp3523
I384
g3458
sI385
g3468
sI394
g3518
sI395
g3520
sI172
g1719
sI397
(dp3524
g481
F0.015857112029201877
ssI398
(dp3525
g481
F0.06666607778526107
ssI399
(dp3526
g481
F0.12126394839311475
ssI85
g1192
sI86
g1203
sI87
g1224
sI88
g1240
sI89
g1255
sI90
g1269
sI347
g3258
sI346
g3249
sI382
g3438
sI383
g3447
ssI397
(dp3527
I384
g3459
sI396
g3524
sI395
g3521
sI172
g1723
sI173
g1725
sI174
g1732
sI399
(dp3528
g481
F0.09210581181419417
ssI400
(dp3529
g481
F0.14547499841465766
ssI398
(dp3530
g481
F0.03554894976118015
ssI87
g1223
sI88
g1239
sI89
g1254
sI346
g3245
sI382
g3439
sI383
g3448
ssI398
(dp3531
I292
g2723
sI293
g2733
sI395
g3522
sI396
g3525
sI397
g3530
sI399
(dp3532
g481
F0.039724962045783324
ssI400
(dp3533
g481
F0.10345025086252903
ssI401
(dp3534
g481
F0.1738317299795934
ssI346
g3246
sI381
g3430
sI382
g3440
sI383
g3449
ssI399
(dp3535
I292
g2724
sI293
g2734
sI265
g2566
sI266
g2588
sI267
g2607
sI396
g3526
sI397
g3528
sI398
g3532
sI400
(dp3536
g481
F0.046588659835101964
ssI401
(dp3537
g481
F0.10317768752026724
ssI402
(dp3538
g481
F0.21657378502336655
ssI345
g3240
sI346
g3247
sI381
g3431
sI383
g3450
ssI400
(dp3539
I292
g2725
sI266
g2589
sI267
g2608
sI397
g3529
sI398
g3533
sI399
g3536
sI401
(dp3540
g481
F0.06527693762082867
ssI402
(dp3541
g481
F0.23482132417369606
sssI401
(dp3542
I292
g2726
sI265
g2567
sI266
g2590
sI267
g2609
sI268
g2621
sI398
g3534
sI399
g3537
sI400
g3540
sI402
(dp3543
g481
F0.11053826871235863
ssI403
(dp3544
g481
F0.37357645391209415
sssI402
(dp3545
I292
g2727
sI264
g2555
sI265
g2568
sI266
g2591
sI267
g2610
sI268
g2622
sI399
g3538
sI400
g3541
sI401
g3543
sI403
(dp3546
g481
F0.2524094284575582
ssI404
(dp3547
g481
F0.2995783533797012
ssI405
(dp3548
g481
F0.4116111649526704
sssI403
(dp3549
I264
g2556
sI265
g2569
sI266
g2592
sI267
g2611
sI401
g3544
sI402
g3546
sI404
(dp3550
g481
F0.11185604771233147
ssI405
(dp3551
g481
F0.2556615145731105
sssI404
(dp3552
I263
g2538
sI264
g2557
sI265
g2570
sI266
g2593
sI267
g2612
sI268
g2623
sI402
g3547
sI403
g3550
sI405
(dp3553
g481
F0.13656813824206746
ssI406
(dp3554
g481
F0.2840821610150361
sssI405
(dp3555
I343
g3234
sI407
(dp3556
g481
F0.16237298590378227
ssI262
g2524
sI263
g2539
sI264
g2558
sI265
g2571
sI266
g2594
sI267
g2613
sI402
g3548
sI403
g3551
sI404
g3553
sI406
(dp3557
g481
F0.08545603894987391
ssI297
g2778
ssI406
(dp3558
I343
g3226
sI407
(dp3559
g481
F0.07999782638320073
ssI261
g2513
sI262
g2525
sI263
g2540
sI264
g2559
sI265
g2572
sI266
g2595
sI267
g2614
sI408
(dp3560
g481
F0.15782998034761372
ssI404
g3554
sI405
g3557
sI342
g3217
sI297
g2779
sI344
g3238
ssI407
(dp3561
I260
g2499
sI261
g2514
sI262
g2526
sI263
g2531
sI264
g2549
sI297
g2776
sI298
g2792
sI405
g3556
sI406
g3559
sI343
g3228
sI408
(dp3562
g481
F0.06647546456820567
ssI409
(dp3563
g481
F0.15116059736095647
sssI408
(dp3564
I409
(dp3565
g481
F0.0739805913861933
ssI258
g2475
sI259
g2487
sI260
g2500
sI229
g2201
sI262
g2527
sI263
g2547
sI407
g3562
sI406
g3560
sI343
g3227
sI228
g2189
sI410
(dp3566
g481
F0.13582297088405465
ssI411
(dp3567
g481
F0.27169566796680616
ssI261
g2515
ssI409
(dp3568
I257
g2465
sI258
g2476
sI259
g2486
sI228
g2190
sI229
g2200
sI262
g2528
sI407
g3563
sI408
g3565
sI260
g2501
sI410
(dp3569
g481
F0.07510735351594151
ssI411
(dp3570
g481
F0.1658160500817431
ssI412
(dp3571
g481
F0.39724792068282205
ssI261
g2506
ssI410
(dp3572
I257
g2466
sI226
g2163
sI227
g2178
sI228
g2191
sI229
g2203
sI258
g2477
sI259
g2489
sI261
g2516
sI409
g3569
sI408
g3566
sI260
g2502
sI411
(dp3573
g481
F0.09162517337911452
ssI412
(dp3574
g481
F0.1809652315737491
ssI413
(dp3575
g481
F0.2828580417266107
ssI254
g2439
sI255
g2452
ssI411
(dp3576
I256
g2460
sI257
g2467
sI226
g2164
sI227
g2179
sI228
g2192
sI229
g2204
sI230
g2209
sI231
g2219
sI232
g2232
sI233
g2243
sI258
g2478
sI413
(dp3577
g481
F0.3031420072434136
ssI259
g2490
sI409
g3570
sI408
g3567
sI260
g2503
sI410
g3573
sI412
(dp3578
g481
F0.11407144422316216
ssI253
g2427
sI254
g2440
sI255
g2453
ssI412
(dp3579
I225
g2129
sI226
g2154
sI227
g2171
sI228
g2186
sI229
g2205
sI230
g2210
sI237
g2276
sI238
g2282
sI239
g2298
sI259
g2491
sI415
(dp3580
g481
F0.22824385179870843
ssI414
(dp3581
g481
F0.19224056875775772
ssI413
(dp3582
g481
F0.07872243769513398
ssI409
g3571
sI410
g3574
sI411
g3578
sI252
g2412
sI253
g2426
sI254
g2436
sI255
g2454
ssI413
(dp3583
I224
g2107
sI225
g2130
sI226
g2156
sI227
g2173
sI228
g2194
sI412
g3582
sI431
(dp3584
g481
F0.1020280422220143
ssI411
g3577
sI239
g2295
sI432
(dp3585
g481
F0.18321168329251877
ssI433
(dp3586
g481
F0.23176988934050022
ssI415
(dp3587
g481
F0.07517353711943413
ssI414
(dp3588
g481
F0.05940214792098483
ssI439
(dp3589
g481
F0.4805672892066293
ssI410
g3575
sI251
g2399
sI252
g2413
sI253
g2431
sI254
g2438
sI255
g2451
ssI414
(dp3590
I224
g2108
sI225
g2131
sI226
g2162
sI227
g2176
sI412
g3581
sI430
(dp3591
g481
F0.08885177524049105
ssI413
g3588
sI432
(dp3592
g481
F0.09059443563598846
ssI433
(dp3593
g481
F0.11341020871051194
ssI434
(dp3594
g481
F0.13887655578003028
ssI416
(dp3595
g481
F0.042953165433557525
ssI415
(dp3596
g481
F0.019334904607021745
ssI431
(dp3597
g481
F0.06535150919697803
ssI438
(dp3598
g481
F0.27554454937689715
ssI439
(dp3599
g481
F0.3053773750557922
ssI250
g2396
sI251
g2400
sI252
g2414
sI253
g2429
sI254
g2441
sI223
g2097
ssI415
(dp3600
I416
(dp3601
g481
F0.018667344534858465
ssI225
g2132
sI226
g2153
sI326
g3050
sI417
(dp3602
g481
F0.046031161344418876
ssI412
g3580
sI429
(dp3603
g481
F0.06949137143974927
ssI430
(dp3604
g481
F0.052790755121570734
ssI413
g3587
sI432
(dp3605
g481
F0.08634879289705634
ssI433
(dp3606
g481
F0.1289804079469936
ssI431
(dp3607
g481
F0.043904598060594754
ssI249
g2383
sI250
g2397
sI251
g2401
sI252
g2415
sI253
g2428
sI414
g3596
ssI416
(dp3608
I417
(dp3609
g481
F0.02283556711985981
ssI418
(dp3610
g481
F0.08106649430345038
ssI329
g3099
sI428
(dp3611
g481
F0.08643989925911821
ssI429
(dp3612
g481
F0.06798894791546614
ssI430
(dp3613
g481
F0.0526652799911644
ssI431
(dp3614
g481
F0.049867263522019194
ssI432
(dp3615
g481
F0.08109461215915353
ssI433
(dp3616
g481
F0.11586735307320528
ssI247
g2360
sI248
g2369
sI249
g2376
sI250
g2385
sI251
g2402
sI252
g2416
sI414
g3595
sI415
g3601
ssI417
(dp3617
I416
g3609
sI418
(dp3618
g481
F0.06114925420893642
ssI419
(dp3619
g481
F0.20345117356067371
ssI325
g3023
sI326
g3038
sI427
(dp3620
g481
F0.06459822293189486
ssI428
(dp3621
g481
F0.05147433321736003
ssI429
(dp3622
g481
F0.043105555375133144
ssI430
(dp3623
g481
F0.04819403020417496
ssI431
(dp3624
g481
F0.06506139849608061
ssI432
(dp3625
g481
F0.11921306411718888
ssI246
g2355
sI247
g2361
sI248
g2370
sI249
g2377
sI250
g2386
sI251
g2403
sI415
g3602
ssI418
(dp3626
I416
g3610
sI417
g3618
sI419
(dp3627
g481
F0.13596369736271124
ssI420
(dp3628
g481
F0.3016372331860523
ssI421
(dp3629
g481
F0.4165072294966531
ssI427
(dp3630
g481
F0.11126535713564302
ssI428
(dp3631
g481
F0.09706614756989598
ssI429
(dp3632
g481
F0.09128528533250813
ssI430
(dp3633
g481
F0.0887140723613974
ssI247
g2362
sI248
g2371
ssI419
(dp3634
I417
g3619
sI418
g3627
sI420
(dp3635
g481
F0.11028526366032664
ssI421
(dp3636
g481
F0.274647300475649
ssI422
(dp3637
g481
F0.39736107677210164
ssI423
(dp3638
g481
F0.337794712574851
ssI426
(dp3639
g481
F0.34199842801700053
ssI427
(dp3640
g481
F0.2927452896910696
ssI428
(dp3641
g481
F0.25234606098094803
ssI429
(dp3642
g481
F0.22978658553979792
ssI247
g2363
ssI420
(dp3643
I418
g3628
sI419
g3635
sI421
(dp3644
g481
F0.11984508930127949
ssI422
(dp3645
g481
F0.31905585221406985
ssI423
(dp3646
g481
F0.2592360740108114
ssI427
(dp3647
g481
F0.38295246893390655
sssI421
(dp3648
I418
g3629
sI419
g3636
sI420
g3644
sI422
(dp3649
g481
F0.10007436104732034
ssI423
(dp3650
g481
F0.12481246687633339
sssI422
(dp3651
I419
g3637
sI420
g3645
sI421
g3649
sI423
(dp3652
g481
F0.08060618492774915
ssI424
(dp3653
g481
F0.42342152267076044
ssI425
(dp3654
g481
F0.436666147429755
sssI423
(dp3655
I419
g3638
sI420
g3646
sI421
g3650
sI422
g3652
sI424
(dp3656
g481
F0.2931651276014568
ssI425
(dp3657
g481
F0.2665820932425639
ssI426
(dp3658
g481
F0.26622421495283805
ssI427
(dp3659
g481
F0.27102131279189623
sssI424
(dp3660
I322
g2996
sI323
g3007
sI422
g3653
sI423
g3656
sI425
(dp3661
g481
F0.1347919906163781
ssI426
(dp3662
g481
F0.16223971020387093
ssI427
(dp3663
g481
F0.20705288037013606
sssI425
(dp3664
I321
g2987
sI322
g2997
sI323
g3008
sI324
g3020
sI422
g3654
sI423
g3657
sI424
g3661
sI426
(dp3665
g481
F0.025611264836554643
ssI427
(dp3666
g481
F0.05763649424247296
sssI426
(dp3667
I321
g2986
sI322
g2994
sI323
g3009
sI324
g3016
sI325
g3029
sI359
g3346
sI360
g3352
sI361
g3357
sI423
g3658
sI428
(dp3668
g481
F0.036784946081999316
ssI424
g3662
sI419
g3639
sI425
g3665
sI427
(dp3669
g481
F0.02106732888154164
sssI427
(dp3670
I417
g3620
sI322
g2995
sI323
g3005
sI324
g3017
sI325
g3036
sI326
g3051
sI423
g3659
sI424
g3663
sI425
g3666
sI426
g3669
sI428
(dp3671
g481
F0.01703267560536555
ssI418
g3630
sI429
(dp3672
g481
F0.03463905903128507
ssI419
g3640
sI420
g3647
sI319
g2976
ssI428
(dp3673
I416
g3611
sI417
g3621
sI418
g3631
sI323
g3006
sI324
g3018
sI325
g3031
sI326
g3044
sI359
g3347
sI426
g3668
sI327
g3063
sI429
(dp3674
g481
F0.013688968122826049
ssI430
(dp3675
g481
F0.030498935691327406
ssI419
g3641
sI427
g3671
ssI429
(dp3676
I416
g3612
sI417
g3622
sI418
g3632
sI419
g3642
sI324
g3019
sI325
g3032
sI326
g3045
sI327
g3064
sI328
g3079
sI329
g3093
sI427
g3672
sI428
g3674
sI430
(dp3677
g481
F0.018059401627554234
ssI431
(dp3678
g481
F0.05425004873909424
ssI432
(dp3679
g481
F0.1607317289919263
ssI356
g3331
sI251
g2404
sI415
g3603
ssI430
(dp3680
I416
g3613
sI225
g2133
sI418
g3633
sI356
g3332
sI325
g3033
sI326
g3046
sI327
g3065
sI328
g3080
sI329
g3094
sI330
g3104
sI428
g3675
sI429
g3677
sI431
(dp3681
g481
F0.022757696890709722
ssI432
(dp3682
g481
F0.11930513262979241
ssI417
g3623
sI415
g3604
sI414
g3591
sI357
g3338
ssI431
(dp3683
I413
g3584
sI414
g3597
sI415
g3607
sI416
g3614
sI417
g3624
sI429
g3678
sI430
g3681
sI432
(dp3684
g481
F0.0780578027711855
ssI433
(dp3685
g481
F0.16098872430095368
ssI352
g3305
sI326
g3047
sI327
g3066
sI328
g3081
sI329
g3100
sI330
g3105
sI336
g3161
sI337
g3170
sI338
g3176
sI339
g3188
sI224
g2109
sI225
g2134
sI226
g2155
sI356
g3333
sI250
g2390
sI251
g2405
ssI432
(dp3686
I413
g3585
sI414
g3592
sI415
g3605
sI416
g3615
sI417
g3625
sI429
g3679
sI430
g3682
sI431
g3684
sI433
(dp3687
g481
F0.09239550868687958
ssI434
(dp3688
g481
F0.15435165708169402
ssI435
(dp3689
g481
F0.26232612418264917
ssI328
g3082
sI329
g3089
sI336
g3156
sI337
g3164
sI224
g2110
sI225
g2135
sI226
g2157
sI249
g2379
sI250
g2391
sI251
g2406
sI252
g2417
ssI433
(dp3690
I224
g2111
sI225
g2136
sI226
g2158
sI432
g3687
sI437
(dp3691
g481
F0.36407511391952474
ssI435
(dp3692
g481
F0.16796008458105838
ssI335
g3151
sI336
g3155
sI434
(dp3693
g481
F0.08653042899428243
ssI416
g3616
sI436
(dp3694
g481
F0.2511290494745196
ssI431
g3685
sI438
(dp3695
g481
F0.2853612990047588
ssI439
(dp3696
g481
F0.3438046034157267
ssI249
g2378
sI250
g2388
sI251
g2407
sI252
g2418
sI413
g3586
sI414
g3593
sI415
g3606
ssI434
(dp3697
I224
g2112
sI225
g2137
sI388
g3494
sI435
(dp3698
g481
F0.054010134895515656
ssI335
g3144
sI336
g3162
sI433
g3693
sI432
g3688
sI436
(dp3699
g481
F0.11811614698564599
ssI437
(dp3700
g481
F0.22067753163651596
ssI438
(dp3701
g481
F0.18228224234308393
ssI439
(dp3702
g481
F0.24075137845662342
ssI250
g2389
sI414
g3594
sI223
g2099
ssI435
(dp3703
I224
g2113
sI388
g3495
sI389
g3501
sI432
g3689
sI433
g3692
sI434
g3698
sI436
(dp3704
g481
F0.033441764397627624
ssI437
(dp3705
g481
F0.07813449366361894
ssI438
(dp3706
g481
F0.07422887602179518
ssI439
(dp3707
g481
F0.12810176931054745
ssI250
g2387
ssI436
(dp3708
I224
g2114
sI388
g3496
sI389
g3502
sI70
g1078
sI74
g1114
sI433
g3694
sI434
g3699
sI435
g3704
sI437
(dp3709
g481
F0.04156194695804981
ssI438
(dp3710
g481
F0.07053984577755534
ssI439
(dp3711
g481
F0.12414976172241313
ssI440
(dp3712
g481
F0.19037991834599224
ssI441
(dp3713
g481
F0.19592465091559172
ssI221
g2075
sI222
g2089
sI223
g2105
ssI437
(dp3714
I65
g1028
sI70
g1079
sI71
g1091
sI73
g1107
sI74
g1115
sI433
g3691
sI434
g3700
sI435
g3705
sI436
g3709
sI438
(dp3715
g481
F0.037279092125412916
ssI439
(dp3716
g481
F0.09853597100811813
ssI440
(dp3717
g481
F0.11735691599521628
ssI441
(dp3718
g481
F0.11167188594993148
ssI442
(dp3719
g481
F0.3561512584377393
sssI438
(dp3720
I64
g997
sI65
g1029
sI443
(dp3721
g481
F0.4832709357072847
ssI70
g1080
sI433
g3695
sI434
g3701
sI435
g3706
sI436
g3710
sI437
g3715
sI439
(dp3722
g481
F0.047457741039373426
ssI440
(dp3723
g481
F0.10066150831208538
ssI441
(dp3724
g481
F0.10693149692776767
ssI250
g2392
sI251
g2408
sI252
g2419
sI442
(dp3725
g481
F0.37892082048882847
ssI414
g3598
ssI439
(dp3726
I224
g2115
sI227
g2177
sI70
g1081
sI437
g3716
sI413
g3589
sI433
g3696
sI434
g3702
sI435
g3707
sI436
g3711
sI414
g3599
sI438
g3722
sI440
(dp3727
g481
F0.10796912819020592
ssI441
(dp3728
g481
F0.16208654571125064
ssI252
g2420
sI221
g2076
sI222
g2087
sI223
g2104
ssI440
(dp3729
I69
g1066
sI70
g1082
sI71
g1092
sI444
(dp3730
g481
F0.28438446454726857
ssI73
g1105
sI74
g1116
sI436
g3712
sI437
g3717
sI438
g3723
sI439
g3727
sI441
(dp3731
g481
F0.04174786956034849
ssI442
(dp3732
g481
F0.28559086595171107
ssI443
(dp3733
g481
F0.32895596564752283
ssI220
g2071
sI445
(dp3734
g481
F0.3665014810529783
ssI222
g2088
ssI441
(dp3735
I64
g998
sI65
g1030
sI67
g1047
sI69
g1068
sI70
g1083
sI444
(dp3736
g481
F0.19672702515065285
ssI202
g1975
sI436
g3713
sI437
g3718
sI438
g3724
sI439
g3728
sI440
g3731
sI442
(dp3737
g481
F0.2114417683827555
ssI443
(dp3738
g481
F0.24818007105370468
ssI252
g2421
sI445
(dp3739
g481
F0.24737733204570084
ssI446
(dp3740
g481
F0.4289245571770421
sssI442
(dp3741
I64
g999
sI444
(dp3742
g481
F0.29002003386434105
ssI202
g1976
sI240
g2317
sI437
g3719
sI438
g3725
sI440
g3732
sI441
g3737
sI443
(dp3743
g481
F0.1762055019031173
ssI252
g2422
sI445
(dp3744
g481
F0.30477345844262127
ssI446
(dp3745
g481
F0.44739023286848356
sssI443
(dp3746
I64
g1000
sI441
g3738
sI230
g2211
sI70
g1084
sI231
g2215
sI445
(dp3747
g481
F0.0986404960443769
ssI440
g3733
sI438
g3721
sI215
g2049
sI216
g2055
sI217
g2059
sI218
g2063
sI444
(dp3748
g481
F0.07472062043429108
ssI442
g3743
sI446
(dp3749
g481
F0.16151664341062838
ssI447
(dp3750
g481
F0.2002459304023829
sssI444
(dp3751
I64
g1001
sI448
(dp3752
g481
F0.119616186771673
ssI194
g1908
sI67
g1049
sI69
g1070
sI70
g1085
sI202
g1977
sI445
(dp3753
g481
F0.033775308785685736
ssI440
g3730
sI215
g2048
sI216
g2056
sI441
g3736
sI218
g2064
sI443
g3748
sI442
g3742
sI446
(dp3754
g481
F0.08129824781262003
ssI447
(dp3755
g481
F0.07935447614266553
sssI445
(dp3756
I64
g1002
sI65
g1031
sI194
g1909
sI67
g1050
sI447
(dp3757
g481
F0.08566478559067946
ssI200
g1962
sI201
g1973
sI202
g1978
sI203
g1993
sI240
g2311
sI195
g1925
sI448
(dp3758
g481
F0.1305878536575489
ssI446
(dp3759
g481
F0.06296175178976443
ssI440
g3734
sI441
g3739
sI442
g3744
sI443
g3747
sI444
g3753
sI62
g977
sI63
g991
ssI446
(dp3760
I64
g1003
sI193
g1880
sI194
g1904
sI195
g1924
sI196
g1937
sI197
g1947
sI200
g1961
sI201
g1972
sI202
g1979
sI203
g1997
sI206
g2009
sI209
g2019
sI448
(dp3761
g481
F0.10850146882545789
ssI447
(dp3762
g481
F0.04224086848534446
ssI441
g3740
sI442
g3745
sI443
g3749
sI444
g3754
sI445
g3759
sI62
g979
sI63
g994
ssI447
(dp3763
I192
g1875
sI449
(dp3764
g481
F0.04451662265562539
ssI450
(dp3765
g481
F0.05461320645033049
ssI195
g1926
sI448
(dp3766
g481
F0.025817119991454935
ssI443
g3750
sI444
g3755
sI445
g3757
sI446
g3762
sI63
g995
sI64
g1018
sI193
g1881
sI194
g1907
sI67
g1048
sI196
g1938
sI69
g1071
sI202
g1980
sI209
g2020
sI210
g2024
sI211
g2032
sI212
g2038
sI215
g2052
sI62
g978
ssI448
(dp3767
I192
g1863
sI449
(dp3768
g481
F0.011566938826643404
ssI450
(dp3769
g481
F0.02477623097209798
ssI16
g594
sI17
g605
sI18
g615
sI195
g1911
sI444
g3752
sI445
g3758
sI446
g3761
sI447
g3766
sI64
g1004
sI193
g1877
sI194
g1906
sI67
g1046
sI68
g1057
sI69
g1060
sI211
g2031
sI63
g993
sI61
g951
sI62
g976
sI191
g1855
ssI449
(dp3770
I448
g3768
sI450
(dp3771
g481
F0.008575567097989638
ssI14
g577
sI15
g585
sI16
g599
sI17
g606
sI18
g616
sI19
g626
sI20
g639
sI21
g653
sI185
g1791
sI186
g1804
sI190
g1845
sI447
g3764
sI192
g1867
sI193
g1882
sI194
g1897
sI67
g1045
sI68
g1058
sI69
g1069
sI211
g2027
sI212
g2034
sI451
(dp3772
g481
F0.019658244275848377
ssI191
g1856
ssI450
(dp3773
I192
g1869
sI193
g1878
sI451
(dp3774
g481
F0.006426255791489059
ssI452
(dp3775
g481
F0.027434366727942958
ssI453
(dp3776
g481
F0.03822433394101306
ssI211
g2029
sI449
g3771
sI13
g560
sI14
g572
sI15
g586
sI16
g596
sI17
g607
sI18
g617
sI19
g627
sI448
g3769
sI186
g1810
sI447
g3765
sI189
g1832
sI190
g1846
sI191
g1857
ssI451
(dp3777
I192
g1866
sI193
g1879
sI450
g3774
sI452
(dp3778
g481
F0.015164091842859833
ssI453
(dp3779
g481
F0.02488823330538314
ssI449
g3772
sI13
g561
sI14
g573
sI15
g587
sI16
g597
sI17
g608
sI18
g621
sI19
g628
sI186
g1806
sI187
g1818
sI188
g1825
sI189
g1833
sI190
g1842
sI191
g1853
ssI452
(dp3780
I450
g3775
sI451
g3778
sI453
(dp3781
g481
F0.009686743788192563
ssI454
(dp3782
g481
F0.026454769254461576
ssI455
(dp3783
g481
F0.05225622856703162
ssI12
g550
sI13
g562
sI14
g574
sI15
g588
sI16
g598
sI17
g609
sI188
g1826
sI189
g1834
sI190
g1843
sI191
g1854
ssI453
(dp3784
I450
g3776
sI451
g3779
sI452
g3781
sI454
(dp3785
g481
F0.010573900409642326
ssI455
(dp3786
g481
F0.037843492896865616
ssI456
(dp3787
g481
F0.061315216118746185
ssI12
g551
sI13
g563
sI14
g575
sI15
g589
sI189
g1835
sI190
g1844
ssI454
(dp3788
I452
g3782
sI453
g3785
sI455
(dp3789
g481
F0.01660630517623589
ssI456
(dp3790
g481
F0.0420744984679712
ssI11
g542
sI12
g552
sI13
g564
sI14
g576
ssI455
(dp3791
I452
g3783
sI453
g3786
sI454
g3789
sI456
(dp3792
g481
F0.019444050444930146
ssI457
(dp3793
g481
F0.059869820209676926
ssI10
g533
sI11
g543
sI12
g553
sI13
g565
sI14
g578
ssI456
(dp3794
I453
g3787
sI454
g3790
sI455
g3792
sI9
g529
sI10
g538
sI11
g546
sI12
g554
sI13
g566
sI457
(dp3795
g481
F0.024686112724982917
ssI458
(dp3796
g481
F0.08588260381022274
sssI457
(dp3797
I459
(dp3798
g481
F0.07391731048720347
ssI455
g3793
sI8
g516
sI9
g525
sI10
g539
sI11
g541
sI12
g555
sI13
g567
sI456
g3795
sI460
(dp3799
g481
F0.13738490828647087
ssI458
(dp3800
g481
F0.026272524774272808
sssI458
(dp3801
I459
(dp3802
g481
F0.019697574859591952
ssI7
g510
sI8
g522
sI9
g530
sI10
g534
sI11
g548
sI460
(dp3803
g481
F0.06587570321931994
ssI461
(dp3804
g481
F0.13462121857767467
ssI456
g3796
sI457
g3800
ssI459
(dp3805
I6
g505
sI7
g511
sI8
g515
sI9
g524
sI10
g532
sI460
(dp3806
g481
F0.024666257253872875
ssI461
(dp3807
g481
F0.07636147420820479
ssI457
g3798
sI458
g3802
ssI460
(dp3808
I6
g506
sI7
g512
sI8
g519
sI9
g528
sI458
g3803
sI459
g3806
sI461
(dp3809
g481
F0.03634030588083233
ssI457
g3799
ssI461
(dp3810
I8
g520
sI458
g3804
sI459
g3807
sI460
g3809
sI7
g513
sssS'adjlist_outer_dict_factory'
p3811
g7
sb.