ccopy_reg
_reconstructor
p0
(cnetworkx.classes.graph
Graph
p1
c__builtin__
object
p2
Ntp3
Rp4
(dp5
S'adjlist_inner_dict_factory'
p6
c__builtin__
dict
p7
sS'node_dict_factory'
p8
g7
sS'edge_attr_dict_factory'
p9
g7
sS'_node'
p10
(dp11
I0
(dp12
sI1
(dp13
sI2
(dp14
sI3
(dp15
sI4
(dp16
sI5
(dp17
sI6
(dp18
sI7
(dp19
sI8
(dp20
sI9
(dp21
sI10
(dp22
sI11
(dp23
sI12
(dp24
sI13
(dp25
sI14
(dp26
sI15
(dp27
sI16
(dp28
sI17
(dp29
sI18
(dp30
sI19
(dp31
sI20
(dp32
sI21
(dp33
sI22
(dp34
sI23
(dp35
sI24
(dp36
sI25
(dp37
sI26
(dp38
sI27
(dp39
sI28
(dp40
sI29
(dp41
sI30
(dp42
sI31
(dp43
sI32
(dp44
sI33
(dp45
sI34
(dp46
sI35
(dp47
sI36
(dp48
sI37
(dp49
sI38
(dp50
sI39
(dp51
sI40
(dp52
sI41
(dp53
sI42
(dp54
sI43
(dp55
sI44
(dp56
sI45
(dp57
sI46
(dp58
sI47
(dp59
sI48
(dp60
sI49
(dp61
sI50
(dp62
sI51
(dp63
sI52
(dp64
sI53
(dp65
sI54
(dp66
sI55
(dp67
sI56
(dp68
sI57
(dp69
sI58
(dp70
sI59
(dp71
sI60
(dp72
sI61
(dp73
sI62
(dp74
sI63
(dp75
sI64
(dp76
sI65
(dp77
sI66
(dp78
sI67
(dp79
sI68
(dp80
sI69
(dp81
sI70
(dp82
sI71
(dp83
sI72
(dp84
sI73
(dp85
sI74
(dp86
sI75
(dp87
sI76
(dp88
sI77
(dp89
sI78
(dp90
sI79
(dp91
sI80
(dp92
sI81
(dp93
sI82
(dp94
sI83
(dp95
sI84
(dp96
sI85
(dp97
sI86
(dp98
sI87
(dp99
sI88
(dp100
sI89
(dp101
sI90
(dp102
sI91
(dp103
sI92
(dp104
sI93
(dp105
sI94
(dp106
sI95
(dp107
sI96
(dp108
sI97
(dp109
sI98
(dp110
sI99
(dp111
sI100
(dp112
sI101
(dp113
sI102
(dp114
sI103
(dp115
sI104
(dp116
sI105
(dp117
sI106
(dp118
sI107
(dp119
sI108
(dp120
sI109
(dp121
sI110
(dp122
sI111
(dp123
sI112
(dp124
sI113
(dp125
sI114
(dp126
sI115
(dp127
sI116
(dp128
sI117
(dp129
sI118
(dp130
sI119
(dp131
sI120
(dp132
sI121
(dp133
sI122
(dp134
sI123
(dp135
sI124
(dp136
sI125
(dp137
sI126
(dp138
sI127
(dp139
sI128
(dp140
sI129
(dp141
sI130
(dp142
sI131
(dp143
sI132
(dp144
sI133
(dp145
sI134
(dp146
sI135
(dp147
sI136
(dp148
sI137
(dp149
sI138
(dp150
sI139
(dp151
sI140
(dp152
sI141
(dp153
sI142
(dp154
sI143
(dp155
sI144
(dp156
sI145
(dp157
sI146
(dp158
sI147
(dp159
sI148
(dp160
sI149
(dp161
sI150
(dp162
sI151
(dp163
sI152
(dp164
sI153
(dp165
sI154
(dp166
sI155
(dp167
sI156
(dp168
sI157
(dp169
sI158
(dp170
sI159
(dp171
sI160
(dp172
sI161
(dp173
sI162
(dp174
sI163
(dp175
sI164
(dp176
sI165
(dp177
sI166
(dp178
sI167
(dp179
sI168
(dp180
sI169
(dp181
sI170
(dp182
sI171
(dp183
sI172
(dp184
sI173
(dp185
sI174
(dp186
sI175
(dp187
sI176
(dp188
sI177
(dp189
sI178
(dp190
sI179
(dp191
sI180
(dp192
sI181
(dp193
sI182
(dp194
sI183
(dp195
sI184
(dp196
sI185
(dp197
sI186
(dp198
sI187
(dp199
sI188
(dp200
sI189
(dp201
sI190
(dp202
sI191
(dp203
sI192
(dp204
sI193
(dp205
sI194
(dp206
sI195
(dp207
sI196
(dp208
sI197
(dp209
sI198
(dp210
sI199
(dp211
sI200
(dp212
sI201
(dp213
sI202
(dp214
sI203
(dp215
sI204
(dp216
sI205
(dp217
sI206
(dp218
sI207
(dp219
sI208
(dp220
sI209
(dp221
sI210
(dp222
sI211
(dp223
sI212
(dp224
sI213
(dp225
sI214
(dp226
sI215
(dp227
sI216
(dp228
sI217
(dp229
sI218
(dp230
sI219
(dp231
sI220
(dp232
sI221
(dp233
sI222
(dp234
sI223
(dp235
sI224
(dp236
sI225
(dp237
sI226
(dp238
sI227
(dp239
sI228
(dp240
sI229
(dp241
sI230
(dp242
sI231
(dp243
sI232
(dp244
sI233
(dp245
sI234
(dp246
sI235
(dp247
sI236
(dp248
sI237
(dp249
sI238
(dp250
sI239
(dp251
sI240
(dp252
sI241
(dp253
sI242
(dp254
sI243
(dp255
sI244
(dp256
sI245
(dp257
sI246
(dp258
sI247
(dp259
sI248
(dp260
sI249
(dp261
sI250
(dp262
sI251
(dp263
sI252
(dp264
sI253
(dp265
sI254
(dp266
sI255
(dp267
sI256
(dp268
sI257
(dp269
sI258
(dp270
sI259
(dp271
sI260
(dp272
sI261
(dp273
sI262
(dp274
sI263
(dp275
sI264
(dp276
sI265
(dp277
sI266
(dp278
sI267
(dp279
sI268
(dp280
sI269
(dp281
sI270
(dp282
sI271
(dp283
sI272
(dp284
sI273
(dp285
sI274
(dp286
sI275
(dp287
sI276
(dp288
sI277
(dp289
sI278
(dp290
sI279
(dp291
sI280
(dp292
sI281
(dp293
sI282
(dp294
sI283
(dp295
sI284
(dp296
sI285
(dp297
sI286
(dp298
sI287
(dp299
sI288
(dp300
sI289
(dp301
sI290
(dp302
sI291
(dp303
sI292
(dp304
sI293
(dp305
sI294
(dp306
sI295
(dp307
sI296
(dp308
sI297
(dp309
sI298
(dp310
sI299
(dp311
sI300
(dp312
sI301
(dp313
sI302
(dp314
sI303
(dp315
sI304
(dp316
sI305
(dp317
sI306
(dp318
sI307
(dp319
sI308
(dp320
sI309
(dp321
sI310
(dp322
sI311
(dp323
sI312
(dp324
sI313
(dp325
sI314
(dp326
sI315
(dp327
sI316
(dp328
sI317
(dp329
sI318
(dp330
sI319
(dp331
sI320
(dp332
sI321
(dp333
sI322
(dp334
sI323
(dp335
sI324
(dp336
sI325
(dp337
sI326
(dp338
sI327
(dp339
sI328
(dp340
sI329
(dp341
sI330
(dp342
sI331
(dp343
sI332
(dp344
sI333
(dp345
sI334
(dp346
sI335
(dp347
sI336
(dp348
sI337
(dp349
sI338
(dp350
sI339
(dp351
sI340
(dp352
sI341
(dp353
sI342
(dp354
sI343
(dp355
sI344
(dp356
sI345
(dp357
sI346
(dp358
sI347
(dp359
sI348
(dp360
sI349
(dp361
sI350
(dp362
sI351
(dp363
sI352
(dp364
sI353
(dp365
sI354
(dp366
sI355
(dp367
sI356
(dp368
sI357
(dp369
sI358
(dp370
sI359
(dp371
sI360
(dp372
sI361
(dp373
sI362
(dp374
sI363
(dp375
sI364
(dp376
sI365
(dp377
sI366
(dp378
sI367
(dp379
sI368
(dp380
sI369
(dp381
sI370
(dp382
sI371
(dp383
sI372
(dp384
sI373
(dp385
sI374
(dp386
sI375
(dp387
sI376
(dp388
sI377
(dp389
sI378
(dp390
sI379
(dp391
sI380
(dp392
sI381
(dp393
sI382
(dp394
sI383
(dp395
sI384
(dp396
sI385
(dp397
sI386
(dp398
sI387
(dp399
sI388
(dp400
sI389
(dp401
sI390
(dp402
sI391
(dp403
sI392
(dp404
sI393
(dp405
sI394
(dp406
sI395
(dp407
sI396
(dp408
sI397
(dp409
sI398
(dp410
sI399
(dp411
sI400
(dp412
sI401
(dp413
sI402
(dp414
sI403
(dp415
sI404
(dp416
sI405
(dp417
sI406
(dp418
sI407
(dp419
sI408
(dp420
sI409
(dp421
sI410
(dp422
sI411
(dp423
sI412
(dp424
sI413
(dp425
sI414
(dp426
sI415
(dp427
sI416
(dp428
sI417
(dp429
sI418
(dp430
sI419
(dp431
sI420
(dp432
sI421
(dp433
sI422
(dp434
sI423
(dp435
sI424
(dp436
sI425
(dp437
sI426
(dp438
sI427
(dp439
sI428
(dp440
sI429
(dp441
sI430
(dp442
sI431
(dp443
sI432
(dp444
sI433
(dp445
sI434
(dp446
sI435
(dp447
sI436
(dp448
sI437
(dp449
sI438
(dp450
sI439
(dp451
sI440
(dp452
sI441
(dp453
sI442
(dp454
sI443
(dp455
sI444
(dp456
sI445
(dp457
sI446
(dp458
sI447
(dp459
sI448
(dp460
sI449
(dp461
sI450
(dp462
sI451
(dp463
sI452
(dp464
sI453
(dp465
sI454
(dp466
sI455
(dp467
sI456
(dp468
sI457
(dp469
sI458
(dp470
sI459
(dp471
sI460
(dp472
sI461
(dp473
ssS'graph'
p474
(dp475
sS'root_graph'
p476
g4
sS'_adj'
p477
(dp478
I0
(dp479
I1
(dp480
S'weight'
p481
F0.014346802576519864
ssI2
(dp482
g481
F0.044160164981261726
ssI3
(dp483
g481
F0.07861359040268352
sssI1
(dp484
I0
g480
sI2
(dp485
g481
F0.016211192893558785
ssI3
(dp486
g481
F0.045133262282290885
ssI4
(dp487
g481
F0.09345919084735523
sssI2
(dp488
I0
g482
sI1
g485
sI3
(dp489
g481
F0.020852954774288477
ssI4
(dp490
g481
F0.055842753344038196
ssI5
(dp491
g481
F0.11832310269045114
sssI3
(dp492
I0
g483
sI1
g486
sI2
g489
sI4
(dp493
g481
F0.021557116658085875
ssI5
(dp494
g481
F0.0670392548236042
sssI4
(dp495
I1
g487
sI2
g490
sI3
g493
sI5
(dp496
g481
F0.026861726365648292
ssI6
(dp497
g481
F0.07628189568228325
ssI7
(dp498
g481
F0.1522941797191024
sssI5
(dp499
I2
g491
sI3
g494
sI4
g496
sI6
(dp500
g481
F0.028518074684020695
ssI7
(dp501
g481
F0.08073243711180828
sssI6
(dp502
I4
g497
sI5
g500
sI7
(dp503
g481
F0.03713983562929147
ssI8
(dp504
g481
F0.07475312081373266
ssI459
(dp505
g481
F0.2282207120518225
ssI460
(dp506
g481
F0.27139780101337996
sssI7
(dp507
I4
g498
sI5
g501
sI6
g503
sI8
(dp508
g481
F0.02047794105219835
ssI9
(dp509
g481
F0.08937351154405043
ssI458
(dp510
g481
F0.20234736830708086
ssI459
(dp511
g481
F0.1914524676707723
ssI460
(dp512
g481
F0.23923715256177364
ssI461
(dp513
g481
F0.3396545801034703
sssI8
(dp514
I459
(dp515
g481
F0.20556983368228826
ssI6
g504
sI7
g508
sI457
(dp516
g481
F0.14223849793915097
ssI10
(dp517
g481
F0.1206218133778074
ssI11
(dp518
g481
F0.15081926910550664
ssI460
(dp519
g481
F0.2569373867557232
ssI461
(dp520
g481
F0.3630108690772516
ssI9
(dp521
g481
F0.04212242959188783
ssI458
(dp522
g481
F0.18794611825679075
sssI9
(dp523
I459
(dp524
g481
F0.22973588520389734
ssI7
g509
sI8
g521
sI457
(dp525
g481
F0.12813618727499385
ssI10
(dp526
g481
F0.039460171294970765
ssI11
(dp527
g481
F0.06406395826392725
ssI460
(dp528
g481
F0.2649099559966303
ssI456
(dp529
g481
F0.1656294164865986
ssI458
(dp530
g481
F0.1835640361536718
sssI10
(dp531
I459
(dp532
g481
F0.3595798788220553
ssI455
(dp533
g481
F0.1544991197399993
ssI8
g517
sI9
g526
sI458
(dp534
g481
F0.27779745600982986
ssI11
(dp535
g481
F0.02493626433563781
ssI12
(dp536
g481
F0.06931491188494569
ssI13
(dp537
g481
F0.16785454311463835
ssI456
(dp538
g481
F0.16266539935464056
ssI457
(dp539
g481
F0.1794170722308912
sssI11
(dp540
I454
(dp541
g481
F0.20847806947640665
ssI455
(dp542
g481
F0.14154986413696155
ssI8
g518
sI9
g527
sI10
g535
sI12
(dp543
g481
F0.028664048177210917
ssI13
(dp544
g481
F0.11073999973834235
ssI456
(dp545
g481
F0.1429828242386363
ssI457
(dp546
g481
F0.16796170621352266
ssI458
(dp547
g481
F0.24655205042569747
sssI12
(dp548
I452
(dp549
g481
F0.15373484508726662
ssI453
(dp550
g481
F0.15204121309418359
ssI454
(dp551
g481
F0.1255731241532912
ssI455
(dp552
g481
F0.08102906969439987
ssI456
(dp553
g481
F0.10829932533989625
ssI457
(dp554
g481
F0.1607460086653504
ssI10
g536
sI11
g543
sI13
(dp555
g481
F0.05867064662983198
ssI14
(dp556
g481
F0.1414344398824897
ssI55
(dp557
g481
F0.1987097523204535
sssI13
(dp558
I450
(dp559
g481
F0.12775704525656853
ssI451
(dp560
g481
F0.11949769134106476
ssI452
(dp561
g481
F0.07357453367729892
ssI453
(dp562
g481
F0.06782366085736947
ssI454
(dp563
g481
F0.07788820144922896
ssI455
(dp564
g481
F0.08143642043816597
ssI456
(dp565
g481
F0.0896840631027981
ssI457
(dp566
g481
F0.1735392240329893
ssI10
g537
sI11
g544
sI12
g555
sI14
(dp567
g481
F0.03134270006636066
ssI15
(dp568
g481
F0.10205589758482692
sssI14
(dp569
I193
(dp570
g481
F0.06325811155694333
ssI450
(dp571
g481
F0.04673005039904121
ssI451
(dp572
g481
F0.04669457597609643
ssI452
(dp573
g481
F0.04121157184809487
ssI453
(dp574
g481
F0.04147452805696529
ssI454
(dp575
g481
F0.07835145118269252
ssI449
(dp576
g481
F0.10382742814432075
ssI455
(dp577
g481
F0.12987590457494738
ssI12
g556
sI13
g567
sI15
(dp578
g481
F0.02991618580808307
ssI16
(dp579
g481
F0.08497897463489418
ssI17
(dp580
g481
F0.13782053193846958
ssI190
(dp581
g481
F0.08931491911599375
ssI191
(dp582
g481
F0.07525842560920032
sssI15
(dp583
I449
(dp584
g481
F0.05362782628151205
ssI450
(dp585
g481
F0.024466075036685114
ssI451
(dp586
g481
F0.03465380674707859
ssI452
(dp587
g481
F0.07306700092940432
ssI453
(dp588
g481
F0.0722172856469713
ssI13
g568
sI14
g578
sI16
(dp589
g481
F0.019215258965791817
ssI17
(dp590
g481
F0.054657209730250164
ssI190
(dp591
g481
F0.08789118167051418
sssI16
(dp592
I448
(dp593
g481
F0.044569656670227664
ssI193
(dp594
g481
F0.14174867777304528
ssI450
(dp595
g481
F0.03254702695112222
ssI451
(dp596
g481
F0.05203048022523686
ssI452
(dp597
g481
F0.12246645346485482
ssI449
(dp598
g481
F0.03900894835321348
ssI14
g579
sI15
g589
sI17
(dp599
g481
F0.021551878970929143
ssI18
(dp600
g481
F0.07410170910066075
ssI190
(dp601
g481
F0.10685011148077386
sssI17
(dp602
I192
(dp603
g481
F0.1244000893887305
ssI448
(dp604
g481
F0.05050953074229335
ssI450
(dp605
g481
F0.04045837048175838
ssI451
(dp606
g481
F0.053608582623916
ssI452
(dp607
g481
F0.1366466487830362
ssI449
(dp608
g481
F0.02831938870900248
ssI14
g580
sI15
g590
sI16
g599
sI18
(dp609
g481
F0.032231373987844945
ssI19
(dp610
g481
F0.04864979316252779
ssI190
(dp611
g481
F0.08943966841178477
ssI191
(dp612
g481
F0.1340932646173944
sssI18
(dp613
I448
(dp614
g481
F0.09762123480014995
ssI449
(dp615
g481
F0.07129813488570078
ssI450
(dp616
g481
F0.10840766597824683
ssI451
(dp617
g481
F0.12430147615995932
ssI68
(dp618
g481
F0.15199770512050786
ssI69
(dp619
g481
F0.16235111092503413
ssI16
g600
sI17
g609
sI19
(dp620
g481
F0.02382114634758168
ssI20
(dp621
g481
F0.06192600807369665
ssI21
(dp622
g481
F0.085262329884833
sssI19
(dp623
I449
(dp624
g481
F0.06734536904637707
ssI450
(dp625
g481
F0.1063008831764789
ssI451
(dp626
g481
F0.10836388989879828
ssI69
(dp627
g481
F0.15150155667759235
ssI72
(dp628
g481
F0.17948233044930437
ssI17
g610
sI18
g620
sI20
(dp629
g481
F0.02490192130287943
ssI21
(dp630
g481
F0.033619649112159956
ssI22
(dp631
g481
F0.08504075299376004
ssI186
(dp632
g481
F0.09838712884758782
ssI187
(dp633
g481
F0.0993614834887982
ssI190
(dp634
g481
F0.11155452801479261
sssI20
(dp635
I449
(dp636
g481
F0.1295341644261865
ssI69
(dp637
g481
F0.16023591681011573
ssI72
(dp638
g481
F0.16810928577674983
ssI73
(dp639
g481
F0.22157797996593456
ssI18
g621
sI19
g629
sI21
(dp640
g481
F0.01928926864881989
ssI22
(dp641
g481
F0.06329068601442513
ssI184
(dp642
g481
F0.11808623083872542
ssI185
(dp643
g481
F0.15216779250912546
ssI186
(dp644
g481
F0.12743288682727505
ssI187
(dp645
g481
F0.12245621327583163
sssI21
(dp646
I214
(dp647
g481
F0.2226828241541884
ssI449
(dp648
g481
F0.1033880517634573
ssI69
(dp649
g481
F0.15347227138111758
ssI72
(dp650
g481
F0.17673625441510518
ssI73
(dp651
g481
F0.24059707771750488
ssI183
(dp652
g481
F0.16689376102124232
ssI184
(dp653
g481
F0.05517570031593507
ssI18
g622
sI19
g630
sI20
g640
sI22
(dp654
g481
F0.024316682260629024
ssI23
(dp655
g481
F0.07355387585658409
ssI24
(dp656
g481
F0.193346719346185
ssI185
(dp657
g481
F0.07688625917666198
ssI186
(dp658
g481
F0.06746185985742735
ssI187
(dp659
g481
F0.06941617107338519
ssI190
(dp660
g481
F0.11791801948438434
ssI191
(dp661
g481
F0.18117825442886373
sssI22
(dp662
I73
(dp663
g481
F0.26836857529060376
ssI43
(dp664
g481
F0.11810883555768617
ssI44
(dp665
g481
F0.1525831743602736
ssI76
(dp666
g481
F0.1673780179263823
ssI184
(dp667
g481
F0.03595653611128409
ssI19
g631
sI20
g641
sI21
g654
sI214
(dp668
g481
F0.19900760621121588
ssI23
(dp669
g481
F0.021783337837701956
ssI24
(dp670
g481
F0.09699225991646626
ssI185
(dp671
g481
F0.05908580864048703
ssI186
(dp672
g481
F0.07209729279002194
ssI187
(dp673
g481
F0.06244745738982205
ssI183
(dp674
g481
F0.10392682035409673
sssI23
(dp675
I214
(dp676
g481
F0.2448402533066276
ssI182
(dp677
g481
F0.0849550949475067
ssI39
(dp678
g481
F0.23124381834905597
ssI73
(dp679
g481
F0.2760624053266654
ssI42
(dp680
g481
F0.09456134907251745
ssI43
(dp681
g481
F0.06522966517568955
ssI44
(dp682
g481
F0.11351289493002473
ssI45
(dp683
g481
F0.24266045837397346
ssI46
(dp684
g481
F0.3972351515206323
ssI77
(dp685
g481
F0.2382407910224764
ssI76
(dp686
g481
F0.13981626454359702
ssI184
(dp687
g481
F0.0454646168773014
ssI21
g655
sI22
g669
sI183
(dp688
g481
F0.0680445813528862
ssI24
(dp689
g481
F0.05443658329821436
ssI25
(dp690
g481
F0.19170484659249468
ssI186
(dp691
g481
F0.1347638903371195
ssI185
(dp692
g481
F0.09501167661608388
sssI24
(dp693
I214
(dp694
g481
F0.19007712621091055
ssI217
(dp695
g481
F0.3320342099185175
ssI182
(dp696
g481
F0.11315974663604954
ssI39
(dp697
g481
F0.18876227001794849
ssI42
(dp698
g481
F0.11069878471272311
ssI43
(dp699
g481
F0.04262929726783799
ssI44
(dp700
g481
F0.03107882808388002
ssI45
(dp701
g481
F0.07861107570597384
ssI46
(dp702
g481
F0.1666798862823611
ssI47
(dp703
g481
F0.28497500010917504
ssI215
(dp704
g481
F0.2582290873629253
ssI21
g656
sI22
g670
sI23
g689
sI184
(dp705
g481
F0.09520190786824351
ssI25
(dp706
g481
F0.05868581625947524
ssI26
(dp707
g481
F0.2615536838055377
ssI27
(dp708
g481
F0.4109268175775067
ssI183
(dp709
g481
F0.060316058927954545
ssI185
(dp710
g481
F0.10818555041427269
ssI181
(dp711
g481
F0.29433489203813096
sssI25
(dp712
I39
(dp713
g481
F0.22570377574753248
ssI40
(dp714
g481
F0.1534031296368662
ssI42
(dp715
g481
F0.19802762601226007
ssI43
(dp716
g481
F0.1041978019238162
ssI44
(dp717
g481
F0.0823893419844349
ssI45
(dp718
g481
F0.06327309694555473
ssI46
(dp719
g481
F0.11762398586030914
ssI47
(dp720
g481
F0.22974308509499902
ssI184
(dp721
g481
F0.24492530530394455
ssI180
(dp722
g481
F0.43114137847648026
ssI181
(dp723
g481
F0.3326248955515002
ssI182
(dp724
g481
F0.19093679052605358
ssI23
g690
sI24
g706
sI217
(dp725
g481
F0.4247421933414049
ssI26
(dp726
g481
F0.09837437009985481
ssI27
(dp727
g481
F0.23393418228471097
ssI28
(dp728
g481
F0.21124914721600957
ssI183
(dp729
g481
F0.15698937286872572
sssI26
(dp730
I39
(dp731
g481
F0.4518144987172922
ssI43
(dp732
g481
F0.3612377873931116
ssI44
(dp733
g481
F0.2671421185287787
ssI45
(dp734
g481
F0.1504272735566387
ssI46
(dp735
g481
F0.14888863364144714
ssI47
(dp736
g481
F0.24088841140681638
ssI182
(dp737
g481
F0.47296468533164554
ssI183
(dp738
g481
F0.413436461604115
ssI24
g707
sI25
g726
sI27
(dp739
g481
F0.1355457409898516
ssI28
(dp740
g481
F0.17284868222722213
sssI27
(dp741
I36
(dp742
g481
F0.34728268444035076
ssI39
(dp743
g481
F0.378220193185523
ssI40
(dp744
g481
F0.3505014741134776
ssI44
(dp745
g481
F0.44477905442450805
ssI45
(dp746
g481
F0.3425773153650477
ssI46
(dp747
g481
F0.33482183536689053
ssI180
(dp748
g481
F0.48556056728366304
ssI24
g708
sI25
g727
sI26
g739
sI28
(dp749
g481
F0.17406189480025372
ssI29
(dp750
g481
F0.29573617184872103
ssI30
(dp751
g481
F0.305136670411198
sssI28
(dp752
I36
(dp753
g481
F0.3799820956560312
ssI39
(dp754
g481
F0.36300384246403977
ssI40
(dp755
g481
F0.26619349007000925
ssI45
(dp756
g481
F0.25214064294531996
ssI25
g728
sI26
g740
sI27
g749
sI29
(dp757
g481
F0.12907046406327188
ssI30
(dp758
g481
F0.18551406541486906
ssI31
(dp759
g481
F0.36201503924081907
sssI29
(dp760
I36
(dp761
g481
F0.34300962204953306
ssI37
(dp762
g481
F0.39806220273206283
ssI40
(dp763
g481
F0.24518720733024735
ssI27
g750
sI28
g757
sI30
(dp764
g481
F0.15253693515904548
ssI31
(dp765
g481
F0.3038159294244116
sssI30
(dp766
I32
(dp767
g481
F0.35403880437112045
ssI36
(dp768
g481
F0.26277353409326304
ssI37
(dp769
g481
F0.35286692736377917
ssI27
g751
sI28
g758
sI29
g764
sI31
(dp770
g481
F0.11985127113522134
sssI31
(dp771
I32
(dp772
g481
F0.10624221852123078
ssI33
(dp773
g481
F0.17713727881477856
ssI34
(dp774
g481
F0.34622612485452614
ssI35
(dp775
g481
F0.2846281479514482
ssI36
(dp776
g481
F0.1305883290932951
ssI37
(dp777
g481
F0.22893289772663084
ssI28
g759
sI29
g765
sI30
g770
ssI32
(dp778
I33
(dp779
g481
F0.05575609384306013
ssI34
(dp780
g481
F0.12447008975833673
ssI35
(dp781
g481
F0.17731781718467157
ssI36
(dp782
g481
F0.14895296734217345
ssI37
(dp783
g481
F0.16978064690343903
ssI30
g767
sI31
g772
ssI33
(dp784
I32
g779
sI34
(dp785
g481
F0.060882657534988185
ssI35
(dp786
g481
F0.09788466246485107
ssI36
(dp787
g481
F0.1610005570565068
ssI37
(dp788
g481
F0.2113391208343623
ssI38
(dp789
g481
F0.23809058290908014
ssI175
(dp790
g481
F0.35206903443699983
ssI176
(dp791
g481
F0.3521684607523285
ssI177
(dp792
g481
F0.2190183999406025
ssI178
(dp793
g481
F0.24130789292320112
ssI31
g773
ssI34
(dp794
I32
g780
sI33
g785
sI35
(dp795
g481
F0.05622553153285178
ssI36
(dp796
g481
F0.17919308707045126
ssI37
(dp797
g481
F0.1559611498285646
ssI38
(dp798
g481
F0.15095546756954406
ssI39
(dp799
g481
F0.30756481159940746
ssI175
(dp800
g481
F0.3422604259854554
ssI176
(dp801
g481
F0.33616367522238905
ssI177
(dp802
g481
F0.21119525527552152
ssI178
(dp803
g481
F0.2622077370399744
ssI83
(dp804
g481
F0.3540496748714447
ssI84
(dp805
g481
F0.38772490028898493
ssI31
g774
ssI35
(dp806
I32
g781
sI33
g786
sI34
g795
sI36
(dp807
g481
F0.08717392664780808
ssI37
(dp808
g481
F0.13097792278257983
ssI38
(dp809
g481
F0.105693986390408
ssI39
(dp810
g481
F0.17541345259803667
ssI40
(dp811
g481
F0.3369813660301217
ssI177
(dp812
g481
F0.22574560683152986
ssI80
(dp813
g481
F0.29223173729917684
ssI81
(dp814
g481
F0.3246104930413275
ssI178
(dp815
g481
F0.2511294325762839
ssI83
(dp816
g481
F0.30179979580515626
ssI84
(dp817
g481
F0.28794412880398024
ssI180
(dp818
g481
F0.2955950182535081
ssI179
(dp819
g481
F0.3089196592070393
ssI31
g775
ssI36
(dp820
I32
g782
sI33
g787
sI34
g796
sI35
g807
sI37
(dp821
g481
F0.05623606126441592
ssI38
(dp822
g481
F0.09588145081291938
ssI39
(dp823
g481
F0.05963317296596216
ssI40
(dp824
g481
F0.11601975721877256
ssI41
(dp825
g481
F0.16642360670979864
ssI177
(dp826
g481
F0.32075957807080424
ssI178
(dp827
g481
F0.31247909796242324
ssI180
(dp828
g481
F0.2999312354472735
ssI27
g742
sI28
g753
sI29
g761
sI30
g768
sI31
g776
ssI37
(dp829
I32
g783
sI33
g788
sI34
g797
sI35
g808
sI36
g821
sI38
(dp830
g481
F0.028283089857611878
ssI39
(dp831
g481
F0.07403110345632635
ssI40
(dp832
g481
F0.08576329797261935
ssI41
(dp833
g481
F0.07225085803622144
ssI42
(dp834
g481
F0.10341614333232337
ssI29
g762
sI30
g769
sI31
g777
ssI38
(dp835
I33
g789
sI34
g798
sI35
g809
sI36
g822
sI37
g830
sI39
(dp836
g481
F0.07205245131775104
ssI40
(dp837
g481
F0.12976317713440702
ssI41
(dp838
g481
F0.07568124033253673
ssI42
(dp839
g481
F0.07627327559155352
ssI43
(dp840
g481
F0.11854285133042876
ssI79
(dp841
g481
F0.19746701007258366
ssI80
(dp842
g481
F0.16800182482784237
ssI83
(dp843
g481
F0.1732852918938898
sssI39
(dp844
I34
g799
sI35
g810
sI36
g823
sI37
g831
sI38
g836
sI40
(dp845
g481
F0.04999501977003895
ssI41
(dp846
g481
F0.08863422119455096
ssI42
(dp847
g481
F0.1290330979282093
ssI43
(dp848
g481
F0.1276161822251135
ssI44
(dp849
g481
F0.1997253359520023
ssI45
(dp850
g481
F0.29345060619002405
ssI80
(dp851
g481
F0.2937966144509856
ssI182
(dp852
g481
F0.21910818487162004
ssI23
g678
sI24
g697
sI25
g713
sI26
g731
sI27
g743
sI28
g754
ssI40
(dp853
I35
g811
sI36
g824
sI37
g832
sI38
g837
sI39
g845
sI41
(dp854
g481
F0.04686964947634
ssI42
(dp855
g481
F0.11022330348871773
ssI43
(dp856
g481
F0.09019729728429508
ssI44
(dp857
g481
F0.13112381321681232
ssI45
(dp858
g481
F0.18538262020473123
ssI25
g714
sI27
g744
sI28
g755
sI29
g763
ssI41
(dp859
I36
g825
sI37
g833
sI38
g838
sI39
g846
sI40
g854
sI42
(dp860
g481
F0.028005741458550962
ssI43
(dp861
g481
F0.04056289441289928
ssI44
(dp862
g481
F0.10243783193010403
sssI42
(dp863
I80
(dp864
g481
F0.20444167768118274
ssI37
g834
sI38
g839
sI39
g847
sI40
g855
sI41
g860
sI43
(dp865
g481
F0.028349373044488847
ssI44
(dp866
g481
F0.11607765948010632
ssI79
(dp867
g481
F0.20012331041504028
ssI76
(dp868
g481
F0.17437633803470234
ssI23
g680
sI24
g698
sI25
g715
ssI43
(dp869
I182
(dp870
g481
F0.12998837320967127
ssI38
g840
sI39
g848
sI40
g856
sI41
g861
sI42
g865
sI183
(dp871
g481
F0.1227625211105906
ssI44
(dp872
g481
F0.04733862019357206
ssI45
(dp873
g481
F0.1430958139382978
ssI46
(dp874
g481
F0.29625818061179415
ssI184
(dp875
g481
F0.15298546230282123
ssI22
g664
sI23
g681
sI24
g699
sI25
g716
sI26
g732
ssI44
(dp876
I39
g849
sI40
g857
sI41
g862
sI42
g866
sI43
g872
sI45
(dp877
g481
F0.04378035745776527
ssI46
(dp878
g481
F0.143645815243754
ssI22
g665
sI23
g682
sI24
g700
sI25
g717
sI26
g733
sI27
g745
sI183
(dp879
g481
F0.1374532248377685
sssI45
(dp880
I39
g850
sI40
g858
sI43
g873
sI44
g877
sI46
(dp881
g481
F0.04475040475588076
ssI47
(dp882
g481
F0.13571653446041326
ssI23
g683
sI24
g701
sI25
g718
sI26
g734
sI27
g746
sI28
g756
ssI46
(dp883
I43
g874
sI44
g878
sI45
g881
sI47
(dp884
g481
F0.06193266639843364
ssI48
(dp885
g481
F0.23217992372561708
ssI49
(dp886
g481
F0.3370917445777205
ssI214
(dp887
g481
F0.25232020881750217
ssI23
g684
sI24
g702
sI25
g719
sI26
g735
sI27
g747
sI183
(dp888
g481
F0.2966582458462023
ssI185
(dp889
g481
F0.3025658963198358
sssI47
(dp890
I45
g882
sI46
g884
sI48
(dp891
g481
F0.088574043941261
ssI49
(dp892
g481
F0.17074116781815835
ssI50
(dp893
g481
F0.25372171523809606
ssI24
g703
sI25
g720
sI26
g736
ssI48
(dp894
I49
(dp895
g481
F0.04547908846776063
ssI50
(dp896
g481
F0.11981444947107013
ssI51
(dp897
g481
F0.23597826183426365
ssI46
g885
sI47
g891
ssI49
(dp898
I48
g895
sI50
(dp899
g481
F0.12415198868070831
ssI51
(dp900
g481
F0.2651781555564235
ssI46
g886
sI47
g892
ssI50
(dp901
I47
g893
sI48
g896
sI49
g899
sI51
(dp902
g481
F0.09101797571083235
ssI52
(dp903
g481
F0.17059305797694307
ssI213
(dp904
g481
F0.3481287703647428
ssI214
(dp905
g481
F0.40625324299720833
ssI212
(dp906
g481
F0.2906491385790672
sssI51
(dp907
I48
g897
sI49
g900
sI50
g902
sI211
(dp908
g481
F0.20947187741317683
ssI52
(dp909
g481
F0.04061851254921815
ssI53
(dp910
g481
F0.09087227178304426
ssI212
(dp911
g481
F0.19384765052802982
ssI213
(dp912
g481
F0.28880302939252106
sssI52
(dp913
I194
(dp914
g481
F0.21802744284288192
ssI211
(dp915
g481
F0.10845895086393795
ssI210
(dp916
g481
F0.08750519875359947
ssI50
g903
sI51
g909
sI212
(dp917
g481
F0.11420459905038674
ssI53
(dp918
g481
F0.020432800417211607
ssI54
(dp919
g481
F0.0642874819921685
ssI55
(dp920
g481
F0.11441081356539846
ssI213
(dp921
g481
F0.217515217908027
sssI53
(dp922
I193
(dp923
g481
F0.22175742294327686
ssI211
(dp924
g481
F0.08757071165376025
ssI209
(dp925
g481
F0.13600460120376176
ssI210
(dp926
g481
F0.06368407620069796
ssI51
g910
sI52
g918
sI54
(dp927
g481
F0.03499368152621394
ssI55
(dp928
g481
F0.06850673923378206
ssI212
(dp929
g481
F0.10954339146256409
sssI54
(dp930
I194
(dp931
g481
F0.16315961114163652
ssI196
(dp932
g481
F0.16156540139213044
ssI208
(dp933
g481
F0.12532358371217062
ssI209
(dp934
g481
F0.07571030014412447
ssI210
(dp935
g481
F0.042662139663342875
ssI211
(dp936
g481
F0.10666010523188156
ssI52
g919
sI53
g927
sI55
(dp937
g481
F0.026376616697632138
ssI56
(dp938
g481
F0.06565615239243773
ssI212
(dp939
g481
F0.1529535816938239
sssI55
(dp940
I12
g557
sI207
(dp941
g481
F0.13332337702110386
ssI208
(dp942
g481
F0.10650666754780261
ssI209
(dp943
g481
F0.04580126033313985
ssI210
(dp944
g481
F0.03592762029855868
ssI211
(dp945
g481
F0.08853282070522137
ssI52
g920
sI53
g928
sI54
g937
sI56
(dp946
g481
F0.035599533823363505
ssI57
(dp947
g481
F0.07449520221028337
ssI58
(dp948
g481
F0.06669041671414933
ssI59
(dp949
g481
F0.142357657382805
sssI56
(dp950
I207
(dp951
g481
F0.10694297234429141
ssI208
(dp952
g481
F0.11586688458507238
ssI209
(dp953
g481
F0.07739644293564589
ssI210
(dp954
g481
F0.09037310957749779
ssI54
g938
sI55
g946
sI57
(dp955
g481
F0.021129056694171672
ssI58
(dp956
g481
F0.06434526181856477
ssI59
(dp957
g481
F0.14785819844932627
sssI57
(dp958
I207
(dp959
g481
F0.07541350547612444
ssI208
(dp960
g481
F0.12614575513309106
ssI209
(dp961
g481
F0.091576965468971
ssI55
g947
sI56
g955
sI58
(dp962
g481
F0.04073478679354561
ssI59
(dp963
g481
F0.10474865589868486
sssI58
(dp964
I206
(dp965
g481
F0.08716579745344859
ssI207
(dp966
g481
F0.06637622247072211
ssI208
(dp967
g481
F0.11489684881850433
ssI209
(dp968
g481
F0.056463707120336895
ssI55
g948
sI56
g956
sI57
g962
sI59
(dp969
g481
F0.03686218475674698
ssI60
(dp970
g481
F0.07696801013547888
sssI59
(dp971
I205
(dp972
g481
F0.09181587215940644
ssI206
(dp973
g481
F0.05797069214441837
ssI207
(dp974
g481
F0.07201299248538273
ssI208
(dp975
g481
F0.14326872733690332
ssI209
(dp976
g481
F0.09715199545990183
ssI55
g949
sI56
g957
sI57
g963
sI58
g969
sI60
(dp977
g481
F0.032875776414661106
ssI61
(dp978
g481
F0.11404665920563051
sssI60
(dp979
I193
(dp980
g481
F0.11165515777054982
ssI194
(dp981
g481
F0.10476533512993154
ssI195
(dp982
g481
F0.09724645635953148
ssI204
(dp983
g481
F0.15270419788616574
ssI205
(dp984
g481
F0.063161537384364
ssI206
(dp985
g481
F0.0755216835836742
ssI207
(dp986
g481
F0.13241635180265504
ssI208
(dp987
g481
F0.23131825688740137
ssI209
(dp988
g481
F0.14512795548058552
ssI58
g970
sI59
g977
sI61
(dp989
g481
F0.03498349656453199
ssI62
(dp990
g481
F0.08577089623248799
sssI61
(dp991
I448
(dp992
g481
F0.12013648337329731
ssI195
(dp993
g481
F0.18586959933560968
ssI202
(dp994
g481
F0.203802108504861
ssI203
(dp995
g481
F0.1216003829192081
ssI204
(dp996
g481
F0.07451876920156021
ssI205
(dp997
g481
F0.05153457799945844
ssI206
(dp998
g481
F0.12196750093150642
ssI207
(dp999
g481
F0.24202794521825086
ssI59
g978
sI60
g989
sI62
(dp1000
g481
F0.020087803462621213
ssI63
(dp1001
g481
F0.09541224008508256
sssI62
(dp1002
I64
(dp1003
g481
F0.11531428835401639
ssI65
(dp1004
g481
F0.19719545896957197
ssI66
(dp1005
g481
F0.16647175972827355
ssI67
(dp1006
g481
F0.21378232383759252
ssI193
(dp1007
g481
F0.22891641141521485
ssI201
(dp1008
g481
F0.39196885065461295
ssI202
(dp1009
g481
F0.17739247580389972
ssI203
(dp1010
g481
F0.09980106966592704
ssI204
(dp1011
g481
F0.08229478556383948
ssI194
(dp1012
g481
F0.24189432408301492
ssI206
(dp1013
g481
F0.19264352442165014
ssI205
(dp1014
g481
F0.09418326202860403
ssI195
(dp1015
g481
F0.25321069056492795
ssI448
(dp1016
g481
F0.10549499277808222
ssI445
(dp1017
g481
F0.09315125945224569
ssI447
(dp1018
g481
F0.08958601121893033
ssI60
g990
sI61
g1000
sI446
(dp1019
g481
F0.09630237991233276
ssI63
(dp1020
g481
F0.039309389722871534
sssI63
(dp1021
I64
(dp1022
g481
F0.03886418358548256
ssI65
(dp1023
g481
F0.06838438253641133
ssI66
(dp1024
g481
F0.06424896396254781
ssI67
(dp1025
g481
F0.132618938357977
ssI201
(dp1026
g481
F0.40628348683592325
ssI202
(dp1027
g481
F0.17026354809552124
ssI203
(dp1028
g481
F0.08596782170177063
ssI204
(dp1029
g481
F0.12335222230799867
ssI205
(dp1030
g481
F0.20598889028533482
ssI445
(dp1031
g481
F0.10262961335692487
ssI242
(dp1032
g481
F0.17851010308112397
ssI448
(dp1033
g481
F0.1696054894802575
ssI446
(dp1034
g481
F0.19378897254443017
ssI61
g1001
sI62
g1020
sI447
(dp1035
g481
F0.17123210198831648
sssI64
(dp1036
I438
(dp1037
g481
F0.2311892135803486
ssI441
(dp1038
g481
F0.11962874918528768
ssI442
(dp1039
g481
F0.23328488411976264
ssI443
(dp1040
g481
F0.2679606541326612
ssI444
(dp1041
g481
F0.1557377598834918
ssI445
(dp1042
g481
F0.1567866696070229
ssI446
(dp1043
g481
F0.27891470761494835
ssI63
g1022
sI448
(dp1044
g481
F0.259202396182645
ssI65
(dp1045
g481
F0.03468305599840166
ssI66
(dp1046
g481
F0.05448492181588411
ssI67
(dp1047
g481
F0.11719981784963651
ssI68
(dp1048
g481
F0.257024938325272
ssI69
(dp1049
g481
F0.30941074867955654
ssI70
(dp1050
g481
F0.2860185798851983
ssI201
(dp1051
g481
F0.4316348366787573
ssI202
(dp1052
g481
F0.179114372586311
ssI203
(dp1053
g481
F0.12549392396165562
ssI204
(dp1054
g481
F0.20994830626857697
ssI240
(dp1055
g481
F0.31074947711205586
ssI241
(dp1056
g481
F0.2288180986922554
ssI242
(dp1057
g481
F0.14923726116884792
ssI62
g1003
sI447
(dp1058
g481
F0.25806743706971813
sssI65
(dp1059
I64
g1045
sI66
(dp1060
g481
F0.028089906483472083
ssI67
(dp1061
g481
F0.1166841946775404
ssI68
(dp1062
g481
F0.2507682327838675
ssI202
(dp1063
g481
F0.2607308583723812
ssI203
(dp1064
g481
F0.17385662352687872
ssI241
(dp1065
g481
F0.17962791084869073
ssI242
(dp1066
g481
F0.10284488294691725
ssI438
(dp1067
g481
F0.14192602954071198
ssI441
(dp1068
g481
F0.08589078753032241
ssI445
(dp1069
g481
F0.21478238034119587
ssI62
g1004
sI63
g1023
ssI66
(dp1070
I64
g1046
sI65
g1060
sI67
(dp1071
g481
F0.056779722578077965
ssI68
(dp1072
g481
F0.1674502468267752
ssI69
(dp1073
g481
F0.2160498014024968
ssI203
(dp1074
g481
F0.22504053874294222
ssI242
(dp1075
g481
F0.19267098651781633
ssI62
g1005
sI63
g1024
ssI67
(dp1076
I64
g1047
sI65
g1061
sI66
g1071
sI68
(dp1077
g481
F0.08863356990619187
ssI69
(dp1078
g481
F0.10534577355101725
ssI70
(dp1079
g481
F0.14428700529238397
ssI71
(dp1080
g481
F0.17764830747176003
ssI448
(dp1081
g481
F0.2310673212570821
ssI441
(dp1082
g481
F0.17074958139836974
ssI447
(dp1083
g481
F0.26945176866399334
ssI444
(dp1084
g481
F0.202163640759194
ssI445
(dp1085
g481
F0.32061977606045033
ssI62
g1006
sI63
g1025
ssI68
(dp1086
I64
g1048
sI65
g1062
sI66
g1072
sI67
g1077
sI69
(dp1087
g481
F0.03846241003953275
ssI70
(dp1088
g481
F0.0919472723012868
ssI71
(dp1089
g481
F0.0819536542404379
ssI72
(dp1090
g481
F0.08161632562435028
ssI73
(dp1091
g481
F0.18248116692782496
ssI18
g618
sI448
(dp1092
g481
F0.23369117313595647
ssI449
(dp1093
g481
F0.21111648403034225
sssI69
(dp1094
I64
g1049
sI448
(dp1095
g481
F0.2311971750253239
ssI66
g1073
sI67
g1078
sI68
g1087
sI70
(dp1096
g481
F0.06822668766621263
ssI71
(dp1097
g481
F0.10043695461326407
ssI72
(dp1098
g481
F0.05179423688621751
ssI73
(dp1099
g481
F0.12011618518620701
ssI74
(dp1100
g481
F0.23192741886896942
ssI18
g619
sI19
g627
sI20
g637
sI21
g649
sI440
(dp1101
g481
F0.24507372580057735
ssI441
(dp1102
g481
F0.25714279052495326
ssI449
(dp1103
g481
F0.1968086622969495
ssI444
(dp1104
g481
F0.2211781432867491
ssI447
(dp1105
g481
F0.2735573707466907
sssI70
(dp1106
I64
g1050
sI67
g1079
sI68
g1088
sI69
g1096
sI71
(dp1107
g481
F0.03959981332298347
ssI72
(dp1108
g481
F0.07153871155386919
ssI73
(dp1109
g481
F0.08287650423324078
ssI74
(dp1110
g481
F0.12424215091475199
ssI437
(dp1111
g481
F0.1444411862459705
ssI438
(dp1112
g481
F0.19368645712931737
ssI439
(dp1113
g481
F0.22372507426872912
ssI440
(dp1114
g481
F0.13368065379393435
ssI441
(dp1115
g481
F0.13476968766018171
ssI444
(dp1116
g481
F0.2290620249210311
sssI71
(dp1117
I67
g1080
sI68
g1089
sI69
g1097
sI70
g1107
sI72
(dp1118
g481
F0.052239648929852736
ssI73
(dp1119
g481
F0.10135150085003466
ssI74
(dp1120
g481
F0.10361188084940148
ssI75
(dp1121
g481
F0.10296353552154976
ssI437
(dp1122
g481
F0.17412538563640148
sssI72
(dp1123
I68
g1090
sI69
g1098
sI70
g1108
sI71
g1118
sI73
(dp1124
g481
F0.049912624833013966
ssI74
(dp1125
g481
F0.12733661433950133
ssI75
(dp1126
g481
F0.09873016341893645
ssI76
(dp1127
g481
F0.14517626546335666
ssI19
g628
sI20
g638
sI21
g650
ssI73
(dp1128
I68
g1091
sI69
g1099
sI70
g1109
sI71
g1119
sI72
g1124
sI74
(dp1129
g481
F0.06368814174411852
ssI75
(dp1130
g481
F0.07049577762720904
ssI76
(dp1131
g481
F0.13233021221360192
ssI77
(dp1132
g481
F0.16670678536461112
ssI78
(dp1133
g481
F0.17675972666503878
ssI440
(dp1134
g481
F0.25103458105982585
ssI20
g639
sI21
g651
sI22
g663
sI23
g679
sI184
(dp1135
g481
F0.2892460491391333
sssI74
(dp1136
I69
g1100
sI70
g1110
sI71
g1120
sI72
g1125
sI73
g1129
sI75
(dp1137
g481
F0.051354042776982405
ssI76
(dp1138
g481
F0.12253220875602355
ssI77
(dp1139
g481
F0.10916917144063092
ssI78
(dp1140
g481
F0.1146807074281679
ssI79
(dp1141
g481
F0.20061825137270242
ssI437
(dp1142
g481
F0.24464786603311844
ssI389
(dp1143
g481
F0.3329082293412159
sssI75
(dp1144
I389
(dp1145
g481
F0.24474553963155427
ssI71
g1121
sI72
g1126
sI73
g1130
sI74
g1137
sI76
(dp1146
g481
F0.05726712459619677
ssI77
(dp1147
g481
F0.1090190706374893
ssI78
(dp1148
g481
F0.0976356268848979
ssI79
(dp1149
g481
F0.14812213593437318
sssI76
(dp1150
I72
g1127
sI73
g1131
sI42
g868
sI75
g1146
sI77
(dp1151
g481
F0.04724288381798188
ssI78
(dp1152
g481
F0.08691798629091786
ssI79
(dp1153
g481
F0.09100413553638326
ssI80
(dp1154
g481
F0.11135063386233689
ssI81
(dp1155
g481
F0.11949500453264926
ssI22
g666
sI23
g686
sI74
g1138
ssI77
(dp1156
I73
g1132
sI74
g1139
sI75
g1147
sI76
g1151
sI78
(dp1157
g481
F0.042875454882176985
ssI79
(dp1158
g481
F0.08199150165422675
ssI80
(dp1159
g481
F0.08310265405742631
ssI81
(dp1160
g481
F0.08239574962182089
ssI82
(dp1161
g481
F0.15930031693858226
ssI182
(dp1162
g481
F0.23992934755904985
ssI23
g685
sI220
(dp1163
g481
F0.34989717719132085
sssI78
(dp1164
I389
(dp1165
g481
F0.34853561223797996
ssI73
g1133
sI74
g1140
sI75
g1148
sI76
g1152
sI77
g1157
sI79
(dp1166
g481
F0.04297264068140478
ssI80
(dp1167
g481
F0.09367871365121705
ssI81
(dp1168
g481
F0.07396236402294135
ssI82
(dp1169
g481
F0.12952242681737813
ssI83
(dp1170
g481
F0.20609684978641776
sssI79
(dp1171
I38
g841
sI42
g867
sI75
g1149
sI76
g1153
sI77
g1158
sI78
g1166
sI80
(dp1172
g481
F0.036865771645604506
ssI81
(dp1173
g481
F0.05916516864854182
ssI82
(dp1174
g481
F0.07793478739678283
ssI83
(dp1175
g481
F0.10086936593069513
ssI84
(dp1176
g481
F0.1925820987787085
ssI74
g1141
ssI80
(dp1177
I35
g813
sI38
g842
sI39
g851
sI42
g864
sI76
g1154
sI77
g1159
sI78
g1167
sI79
g1172
sI81
(dp1178
g481
F0.04082785317729307
ssI82
(dp1179
g481
F0.08663143163733578
ssI83
(dp1180
g481
F0.08278313196753312
ssI84
(dp1181
g481
F0.158697420712592
ssI85
(dp1182
g481
F0.2336518694881663
ssI220
(dp1183
g481
F0.3792075664574212
sssI81
(dp1184
I35
g814
sI76
g1155
sI77
g1160
sI78
g1168
sI79
g1173
sI80
g1178
sI82
(dp1185
g481
F0.056536741340938126
ssI83
(dp1186
g481
F0.11296867130817495
ssI84
(dp1187
g481
F0.1676198819379711
ssI85
(dp1188
g481
F0.198760794222376
ssI86
(dp1189
g481
F0.18747991119438145
ssI220
(dp1190
g481
F0.3245427935966556
ssI221
(dp1191
g481
F0.26022675574132365
sssI82
(dp1192
I77
g1161
sI78
g1169
sI79
g1174
sI80
g1179
sI81
g1185
sI83
(dp1193
g481
F0.06947175618561083
ssI84
(dp1194
g481
F0.1783578459942047
ssI85
(dp1195
g481
F0.15923901846851907
ssI86
(dp1196
g481
F0.14953451039762627
ssI87
(dp1197
g481
F0.17637691326781182
sssI83
(dp1198
I34
g804
sI35
g816
sI38
g843
sI78
g1170
sI79
g1175
sI80
g1180
sI81
g1186
sI82
g1193
sI84
(dp1199
g481
F0.08390605480725492
ssI85
(dp1200
g481
F0.17427111057494976
ssI86
(dp1201
g481
F0.1772465088177289
sssI84
(dp1202
I176
(dp1203
g481
F0.3557520258914789
ssI34
g805
sI35
g817
sI177
(dp1204
g481
F0.3542394181037268
ssI172
(dp1205
g481
F0.17570359415277553
ssI79
g1176
sI80
g1181
sI81
g1187
sI82
g1194
sI83
g1199
sI85
(dp1206
g481
F0.1110005792738949
ssI86
(dp1207
g481
F0.14092133744909047
ssI87
(dp1208
g481
F0.18817746870346358
ssI345
(dp1209
g481
F0.29797140773871045
ssI175
(dp1210
g481
F0.2628551636233839
sssI85
(dp1211
I177
(dp1212
g481
F0.2989315520269039
ssI396
(dp1213
g481
F0.09668619331087158
ssI172
(dp1214
g481
F0.05717308370247642
ssI173
(dp1215
g481
F0.07407943569096122
ssI174
(dp1216
g481
F0.11472790289126208
ssI175
(dp1217
g481
F0.1584213194602558
ssI80
g1182
sI81
g1188
sI82
g1195
sI83
g1200
sI84
g1206
sI86
(dp1218
g481
F0.02582733434829627
ssI87
(dp1219
g481
F0.04881006337807821
ssI88
(dp1220
g481
F0.0666724491753748
ssI345
(dp1221
g481
F0.21965753251749356
ssI346
(dp1222
g481
F0.19194364009649648
sssI86
(dp1223
I395
(dp1224
g481
F0.08013510907592385
ssI396
(dp1225
g481
F0.07496484874310759
ssI170
(dp1226
g481
F0.036395936909163984
ssI171
(dp1227
g481
F0.03587003830722405
ssI172
(dp1228
g481
F0.026470192407013017
ssI173
(dp1229
g481
F0.056456391378335836
ssI174
(dp1230
g481
F0.11657709686180147
ssI81
g1189
sI82
g1196
sI83
g1201
sI84
g1207
sI85
g1218
sI87
(dp1231
g481
F0.01689257280265899
ssI88
(dp1232
g481
F0.03176949478366055
ssI89
(dp1233
g481
F0.05055122217435588
ssI394
(dp1234
g481
F0.08384142971653773
sssI87
(dp1235
I384
(dp1236
g481
F0.08829645486214965
ssI385
(dp1237
g481
F0.10201860325849427
ssI395
(dp1238
g481
F0.029118726536001494
ssI169
(dp1239
g481
F0.034655843059653434
ssI170
(dp1240
g481
F0.03455107090382545
ssI171
(dp1241
g481
F0.04194731494869519
ssI172
(dp1242
g481
F0.02813858198865558
ssI173
(dp1243
g481
F0.07133641330423067
ssI397
(dp1244
g481
F0.05461924970454485
ssI396
(dp1245
g481
F0.030756569492241936
ssI82
g1197
sI84
g1208
sI85
g1219
sI86
g1231
sI393
(dp1246
g481
F0.07018166443324717
ssI88
(dp1247
g481
F0.007349371199976184
ssI89
(dp1248
g481
F0.015109629481360798
ssI90
(dp1249
g481
F0.030642617349068493
ssI394
(dp1250
g481
F0.035465760292980604
ssI383
(dp1251
g481
F0.08659132833720903
sssI88
(dp1252
I395
(dp1253
g481
F0.026455014064548928
ssI168
(dp1254
g481
F0.04926034671894609
ssI169
(dp1255
g481
F0.022529853063284228
ssI170
(dp1256
g481
F0.0259285049299348
ssI171
(dp1257
g481
F0.03223703725525848
ssI172
(dp1258
g481
F0.022287433511390006
ssI173
(dp1259
g481
F0.06590256951829343
ssI397
(dp1260
g481
F0.042729445063674924
ssI396
(dp1261
g481
F0.025944959879815016
ssI85
g1220
sI86
g1232
sI87
g1247
sI89
(dp1262
g481
F0.009723577579565077
ssI90
(dp1263
g481
F0.030688897317007746
ssI394
(dp1264
g481
F0.03836324606730201
sssI89
(dp1265
I384
(dp1266
g481
F0.0739196850530871
ssI393
(dp1267
g481
F0.04348946441282709
ssI395
(dp1268
g481
F0.020774995349117288
ssI167
(dp1269
g481
F0.03464294648337647
ssI168
(dp1270
g481
F0.04985579821255266
ssI169
(dp1271
g481
F0.02602295635533147
ssI170
(dp1272
g481
F0.039562420584097105
ssI171
(dp1273
g481
F0.0584933054476859
ssI172
(dp1274
g481
F0.053454269428316124
ssI397
(dp1275
g481
F0.060458327509305375
ssI396
(dp1276
g481
F0.03382555658596013
ssI86
g1233
sI87
g1248
sI88
g1262
sI90
(dp1277
g481
F0.009460173590315176
ssI91
(dp1278
g481
F0.026334391154476867
ssI394
(dp1279
g481
F0.021267988648604588
sssI90
(dp1280
I384
(dp1281
g481
F0.08422626016671722
ssI385
(dp1282
g481
F0.08608942565810251
ssI387
(dp1283
g481
F0.05923675614623331
ssI166
(dp1284
g481
F0.10617262085141221
ssI167
(dp1285
g481
F0.03884113222624761
ssI168
(dp1286
g481
F0.059647155110005234
ssI169
(dp1287
g481
F0.039365744154692885
ssI170
(dp1288
g481
F0.05756325338831296
ssI395
(dp1289
g481
F0.032972241594224905
ssI396
(dp1290
g481
F0.057711319102609855
ssI392
(dp1291
g481
F0.0360912404465946
ssI87
g1249
sI88
g1263
sI89
g1277
sI91
(dp1292
g481
F0.010697215694541387
ssI92
(dp1293
g481
F0.030885226864835687
ssI394
(dp1294
g481
F0.017532743779334357
ssI393
(dp1295
g481
F0.02658269069104318
sssI91
(dp1296
I386
(dp1297
g481
F0.05935515237084757
ssI387
(dp1298
g481
F0.052350185036992875
ssI165
(dp1299
g481
F0.13802038451621526
ssI166
(dp1300
g481
F0.1015051391000733
ssI167
(dp1301
g481
F0.04355327681012829
ssI168
(dp1302
g481
F0.07727183466669245
ssI169
(dp1303
g481
F0.05970087113767551
ssI394
(dp1304
g481
F0.022611485544692708
ssI391
(dp1305
g481
F0.07340973207281422
ssI395
(dp1306
g481
F0.04273653665430505
ssI392
(dp1307
g481
F0.024581463555728808
ssI393
(dp1308
g481
F0.019920578731165376
ssI89
g1278
sI90
g1292
sI92
(dp1309
g481
F0.017752474427572103
ssI93
(dp1310
g481
F0.0778537305338027
ssI94
(dp1311
g481
F0.1987128060361857
sssI92
(dp1312
I165
(dp1313
g481
F0.14908745889891462
ssI166
(dp1314
g481
F0.13003507482653318
ssI167
(dp1315
g481
F0.07166792216811824
ssI168
(dp1316
g481
F0.10878924336317156
ssI393
(dp1317
g481
F0.038057392423161626
ssI394
(dp1318
g481
F0.04780093339424087
ssI391
(dp1319
g481
F0.06840474236738459
ssI392
(dp1320
g481
F0.030697010360716936
ssI90
g1293
sI91
g1309
sI93
(dp1321
g481
F0.0483760602259945
ssI94
(dp1322
g481
F0.14777444965998976
ssI390
(dp1323
g481
F0.10135882270412999
sssI93
(dp1324
I96
(dp1325
g481
F0.43717618314054263
ssI165
(dp1326
g481
F0.2244098935061669
ssI166
(dp1327
g481
F0.2239598570869412
ssI391
(dp1328
g481
F0.10305365746307259
ssI392
(dp1329
g481
F0.077503225578583
ssI393
(dp1330
g481
F0.10123620520760732
ssI91
g1310
sI92
g1321
sI94
(dp1331
g481
F0.08824332907355123
ssI95
(dp1332
g481
F0.2945167561683649
sssI94
(dp1333
I96
(dp1334
g481
F0.3421931995883684
ssI163
(dp1335
g481
F0.4359599266225466
ssI164
(dp1336
g481
F0.35407090665818186
ssI165
(dp1337
g481
F0.3205739462827496
ssI166
(dp1338
g481
F0.27471029272766206
ssI392
(dp1339
g481
F0.21984888413060089
ssI91
g1311
sI92
g1322
sI93
g1331
sI95
(dp1340
g481
F0.1359496989366121
sssI95
(dp1341
I96
(dp1342
g481
F0.138229242690299
ssI97
(dp1343
g481
F0.37562180534029266
ssI93
g1332
sI94
g1340
ssI96
(dp1344
I97
(dp1345
g481
F0.08178170915686737
ssI98
(dp1346
g481
F0.2740453480645669
ssI136
(dp1347
g481
F0.4971840584087101
ssI137
(dp1348
g481
F0.37847349380663725
ssI93
g1325
sI94
g1334
sI95
g1342
ssI97
(dp1349
I96
g1345
sI98
(dp1350
g481
F0.08808077908638708
ssI99
(dp1351
g481
F0.42368526236549087
ssI136
(dp1352
g481
F0.22959129836466247
ssI137
(dp1353
g481
F0.1458834709289789
ssI138
(dp1354
g481
F0.17783833723238782
ssI139
(dp1355
g481
F0.20955867773401768
ssI95
g1343
ssI98
(dp1356
I96
g1346
sI97
g1350
sI99
(dp1357
g481
F0.15106416240052561
ssI135
(dp1358
g481
F0.279913810901257
ssI136
(dp1359
g481
F0.10762596356438227
ssI137
(dp1360
g481
F0.10965066975616129
ssI138
(dp1361
g481
F0.1827851738073471
sssI99
(dp1362
I97
g1351
sI98
g1357
sI100
(dp1363
g481
F0.14739103611138546
ssI101
(dp1364
g481
F0.2818367154457709
ssI134
(dp1365
g481
F0.3315338793443943
ssI135
(dp1366
g481
F0.20071805578527677
ssI136
(dp1367
g481
F0.2538715239902189
ssI137
(dp1368
g481
F0.2018299821287033
sssI100
(dp1369
I99
g1363
sI132
(dp1370
g481
F0.3897984580104278
ssI133
(dp1371
g481
F0.2988477276114387
ssI102
(dp1372
g481
F0.14129328472225156
ssI103
(dp1373
g481
F0.2422953170109503
ssI135
(dp1374
g481
F0.27138568176355826
ssI159
(dp1375
g481
F0.47314739397729555
ssI134
(dp1376
g481
F0.16351640916531898
ssI101
(dp1377
g481
F0.05873916461801137
sssI101
(dp1378
I99
g1364
sI132
(dp1379
g481
F0.3674402481660021
ssI133
(dp1380
g481
F0.25799437508229855
ssI102
(dp1381
g481
F0.0636706092061733
ssI103
(dp1382
g481
F0.196637485935791
ssI135
(dp1383
g481
F0.23183226686356911
ssI100
g1377
sI134
(dp1384
g481
F0.17196768124554193
sssI102
(dp1385
I129
(dp1386
g481
F0.09816347974624154
ssI131
(dp1387
g481
F0.20842506083591242
ssI100
g1372
sI101
g1381
sI134
(dp1388
g481
F0.21103764538029735
ssI103
(dp1389
g481
F0.04385757787164278
ssI104
(dp1390
g481
F0.11784579386600659
ssI105
(dp1391
g481
F0.12268927090845434
ssI106
(dp1392
g481
F0.06834730190297413
ssI135
(dp1393
g481
F0.4668021250123481
ssI108
(dp1394
g481
F0.06922337218164352
ssI109
(dp1395
g481
F0.10347213053024054
ssI132
(dp1396
g481
F0.14316280229582884
ssI133
(dp1397
g481
F0.13743585462149316
sssI103
(dp1398
I129
(dp1399
g481
F0.07162060276582581
ssI130
(dp1400
g481
F0.118685193698828
ssI131
(dp1401
g481
F0.1436853141580551
ssI100
g1373
sI101
g1382
sI102
g1389
sI104
(dp1402
g481
F0.02990199910635925
ssI105
(dp1403
g481
F0.03857818604412809
ssI106
(dp1404
g481
F0.028566709703568772
ssI107
(dp1405
g481
F0.060548245106220665
ssI108
(dp1406
g481
F0.10466063123107171
ssI132
(dp1407
g481
F0.09342705842775345
ssI159
(dp1408
g481
F0.44343204423683896
ssI134
(dp1409
g481
F0.3562693059189223
ssI133
(dp1410
g481
F0.17670616806407477
sssI104
(dp1411
I128
(dp1412
g481
F0.05017631253205696
ssI129
(dp1413
g481
F0.04184556734810579
ssI130
(dp1414
g481
F0.04272428191967729
ssI131
(dp1415
g481
F0.06622896993401199
ssI132
(dp1416
g481
F0.05494664721898378
ssI133
(dp1417
g481
F0.1674161400422348
ssI102
g1390
sI103
g1402
sI105
(dp1418
g481
F0.00812045728347358
ssI106
(dp1419
g481
F0.045655384224873204
ssI107
(dp1420
g481
F0.09738415665833404
sssI105
(dp1421
I128
(dp1422
g481
F0.033160517176510106
ssI129
(dp1423
g481
F0.03485789056557249
ssI130
(dp1424
g481
F0.05002340530157826
ssI131
(dp1425
g481
F0.08562933130076834
ssI132
(dp1426
g481
F0.08248636707170981
ssI102
g1391
sI103
g1403
sI104
g1418
sI106
(dp1427
g481
F0.026269220446208833
ssI107
(dp1428
g481
F0.06997113848680901
ssI108
(dp1429
g481
F0.15463185472720975
ssI127
(dp1430
g481
F0.07268970924258833
sssI106
(dp1431
I128
(dp1432
g481
F0.034146400533467486
ssI129
(dp1433
g481
F0.05150796943985978
ssI130
(dp1434
g481
F0.11773803516211546
ssI102
g1392
sI103
g1404
sI104
g1419
sI105
g1427
sI107
(dp1435
g481
F0.01601142402632107
ssI108
(dp1436
g481
F0.05584659804860528
ssI109
(dp1437
g481
F0.12431531247413552
ssI127
(dp1438
g481
F0.057652405895922035
sssI107
(dp1439
I128
(dp1440
g481
F0.037717341486532295
ssI129
(dp1441
g481
F0.06240266588380675
ssI103
g1405
sI104
g1420
sI105
g1428
sI106
g1435
sI108
(dp1442
g481
F0.022432865998972193
ssI109
(dp1443
g481
F0.07041679240626214
ssI121
(dp1444
g481
F0.13574630001638313
ssI122
(dp1445
g481
F0.09494246292034378
ssI123
(dp1446
g481
F0.07601142750279143
ssI125
(dp1447
g481
F0.060188939731126045
ssI126
(dp1448
g481
F0.03546928041978422
ssI127
(dp1449
g481
F0.041009230237007505
sssI108
(dp1450
I128
(dp1451
g481
F0.10817977234838858
ssI129
(dp1452
g481
F0.1448737635080518
ssI102
g1394
sI103
g1406
sI105
g1429
sI106
g1436
sI107
g1442
sI109
(dp1453
g481
F0.020189733051865714
ssI110
(dp1454
g481
F0.07799239459854956
ssI119
(dp1455
g481
F0.10710569863693722
ssI120
(dp1456
g481
F0.09035673391750858
ssI121
(dp1457
g481
F0.06325493671530284
ssI122
(dp1458
g481
F0.04989934202614115
ssI123
(dp1459
g481
F0.060980278915072836
sssI109
(dp1460
I102
g1395
sI106
g1437
sI107
g1443
sI108
g1453
sI110
(dp1461
g481
F0.030113837937295003
ssI111
(dp1462
g481
F0.09486381680788544
ssI118
(dp1463
g481
F0.1538699813498702
ssI119
(dp1464
g481
F0.07240982963321448
ssI120
(dp1465
g481
F0.051751175419293735
ssI121
(dp1466
g481
F0.03500016291947648
ssI122
(dp1467
g481
F0.03963137809965956
ssI123
(dp1468
g481
F0.05819576397900561
sssI110
(dp1469
I108
g1454
sI109
g1461
sI111
(dp1470
g481
F0.026884441998771467
ssI112
(dp1471
g481
F0.08175965212663604
ssI117
(dp1472
g481
F0.08548499466775376
ssI118
(dp1473
g481
F0.05563692565952588
ssI119
(dp1474
g481
F0.02471146720737725
ssI120
(dp1475
g481
F0.03107157274170391
ssI121
(dp1476
g481
F0.05027728172040155
ssI122
(dp1477
g481
F0.07803099456924029
sssI111
(dp1478
I109
g1462
sI110
g1470
sI112
(dp1479
g481
F0.02541682384279125
ssI113
(dp1480
g481
F0.0704051530063818
ssI116
(dp1481
g481
F0.10971631937260853
ssI117
(dp1482
g481
F0.06790888458181774
ssI118
(dp1483
g481
F0.046074663763506635
ssI119
(dp1484
g481
F0.045503416182287204
ssI120
(dp1485
g481
F0.04163818844301735
ssI121
(dp1486
g481
F0.07604390554771631
sssI112
(dp1487
I110
g1471
sI111
g1479
sI113
(dp1488
g481
F0.0202891791493498
ssI114
(dp1489
g481
F0.048941440278596635
ssI115
(dp1490
g481
F0.05276606097475775
ssI116
(dp1491
g481
F0.04961962955119905
ssI117
(dp1492
g481
F0.04587376954954855
ssI118
(dp1493
g481
F0.05324006886038431
ssI119
(dp1494
g481
F0.09373330730458095
ssI120
(dp1495
g481
F0.11116250175973685
sssI113
(dp1496
I111
g1480
sI112
g1488
sI114
(dp1497
g481
F0.015457997728274026
ssI115
(dp1498
g481
F0.041214863808831714
ssI116
(dp1499
g481
F0.05786363814131906
ssI117
(dp1500
g481
F0.08685154094401165
ssI118
(dp1501
g481
F0.09834023796158581
sssI114
(dp1502
I112
g1489
sI113
g1497
sI115
(dp1503
g481
F0.017971464456027333
ssI116
(dp1504
g481
F0.0403341849295172
ssI117
(dp1505
g481
F0.08902252969382017
sssI115
(dp1506
I112
g1490
sI113
g1498
sI114
g1503
sI116
(dp1507
g481
F0.015625083239152567
ssI117
(dp1508
g481
F0.05753888305213749
sssI116
(dp1509
I111
g1481
sI112
g1491
sI113
g1499
sI114
g1504
sI115
g1507
sI117
(dp1510
g481
F0.01865829614024856
ssI118
(dp1511
g481
F0.05045643154027662
sssI117
(dp1512
I110
g1472
sI111
g1482
sI112
g1492
sI113
g1500
sI114
g1505
sI115
g1508
sI116
g1510
sI118
(dp1513
g481
F0.015409693424224028
ssI119
(dp1514
g481
F0.061035270364803225
ssI120
(dp1515
g481
F0.12838100906333644
sssI118
(dp1516
I109
g1463
sI110
g1473
sI111
g1483
sI112
g1493
sI113
g1501
sI116
g1511
sI117
g1513
sI119
(dp1517
g481
F0.021104462513372765
ssI120
(dp1518
g481
F0.06904185067451914
ssI121
(dp1519
g481
F0.13145331715732486
sssI119
(dp1520
I108
g1455
sI109
g1464
sI110
g1474
sI111
g1484
sI112
g1494
sI117
g1514
sI118
g1517
sI120
(dp1521
g481
F0.02620962203302648
ssI121
(dp1522
g481
F0.05992949705923794
ssI122
(dp1523
g481
F0.09998971111935233
sssI120
(dp1524
I108
g1456
sI109
g1465
sI110
g1475
sI111
g1485
sI112
g1495
sI117
g1515
sI118
g1518
sI119
g1521
sI121
(dp1525
g481
F0.018542374623418387
ssI122
(dp1526
g481
F0.05352890776020229
ssI123
(dp1527
g481
F0.11817947021277442
sssI121
(dp1528
I107
g1444
sI108
g1457
sI109
g1466
sI110
g1476
sI111
g1486
sI118
g1519
sI119
g1522
sI120
g1525
sI122
(dp1529
g481
F0.0167118806907661
ssI123
(dp1530
g481
F0.05175054771482905
ssI124
(dp1531
g481
F0.08890714834710324
sssI122
(dp1532
I107
g1445
sI108
g1458
sI109
g1467
sI110
g1477
sI119
g1523
sI120
g1526
sI121
g1529
sI123
(dp1533
g481
F0.01805400015670943
ssI124
(dp1534
g481
F0.045235407328344975
ssI125
(dp1535
g481
F0.08120806119316942
sssI123
(dp1536
I107
g1446
sI108
g1459
sI109
g1468
sI120
g1527
sI121
g1530
sI122
g1533
sI124
(dp1537
g481
F0.011153439724056401
ssI125
(dp1538
g481
F0.029896840355631792
ssI126
(dp1539
g481
F0.06229583418701987
ssI127
(dp1540
g481
F0.0941898766681833
sssI124
(dp1541
I121
g1531
sI122
g1534
sI123
g1537
sI125
(dp1542
g481
F0.012588125844447188
ssI126
(dp1543
g481
F0.04332064578550673
ssI127
(dp1544
g481
F0.07612873931811663
sssI125
(dp1545
I128
(dp1546
g481
F0.06338816173312617
ssI107
g1447
sI122
g1535
sI123
g1538
sI124
g1542
sI126
(dp1547
g481
F0.014503240210726643
ssI127
(dp1548
g481
F0.031862345834305514
sssI126
(dp1549
I128
(dp1550
g481
F0.026741360489975614
ssI107
g1448
sI123
g1539
sI124
g1543
sI125
g1547
sI127
(dp1551
g481
F0.009441400355051388
sssI127
(dp1552
I128
(dp1553
g481
F0.009041950940218318
ssI129
(dp1554
g481
F0.02042288435123489
ssI130
(dp1555
g481
F0.08150328292875399
ssI105
g1430
sI106
g1438
sI107
g1449
sI123
g1540
sI124
g1544
sI125
g1548
sI126
g1551
ssI128
(dp1556
I129
(dp1557
g481
F0.007063961259253003
ssI130
(dp1558
g481
F0.05057974889256045
ssI131
(dp1559
g481
F0.08810688164869353
ssI104
g1412
sI105
g1422
sI106
g1432
sI107
g1440
sI108
g1451
sI125
g1546
sI126
g1550
sI127
g1553
ssI129
(dp1560
I128
g1557
sI130
(dp1561
g481
F0.027414027785594212
ssI131
(dp1562
g481
F0.05082160038131251
ssI132
(dp1563
g481
F0.0635320113387071
ssI102
g1386
sI103
g1399
sI104
g1413
sI105
g1423
sI106
g1433
sI107
g1441
sI108
g1452
sI127
g1554
ssI130
(dp1564
I128
g1558
sI129
g1561
sI131
(dp1565
g481
F0.012954032909404056
ssI132
(dp1566
g481
F0.04382220519999227
ssI103
g1400
sI104
g1414
sI105
g1424
sI106
g1434
sI127
g1555
ssI131
(dp1567
I128
g1559
sI129
g1562
sI130
g1565
sI132
(dp1568
g481
F0.020718096717057634
ssI133
(dp1569
g481
F0.07901208852344271
ssI102
g1387
sI103
g1401
sI104
g1415
sI105
g1425
sI151
(dp1570
g481
F0.2373904389090752
sssI132
(dp1571
I129
g1563
sI130
g1566
sI131
g1568
sI100
g1370
sI101
g1379
sI102
g1396
sI103
g1407
sI104
g1416
sI105
g1426
sI151
(dp1572
g481
F0.2704715319441613
ssI134
(dp1573
g481
F0.2377947706690528
ssI133
(dp1574
g481
F0.047566687163247794
sssI133
(dp1575
I131
g1569
sI100
g1371
sI101
g1380
sI102
g1397
sI103
g1410
sI104
g1417
sI135
(dp1576
g481
F0.39543969356520003
ssI148
(dp1577
g481
F0.2845527233353847
ssI149
(dp1578
g481
F0.276657163107313
ssI150
(dp1579
g481
F0.2224172196359652
ssI151
(dp1580
g481
F0.2684892533329595
ssI152
(dp1581
g481
F0.4169568881890552
ssI132
g1574
sI134
(dp1582
g481
F0.083461347583764
sssI134
(dp1583
I99
g1365
sI132
g1573
sI101
g1384
sI102
g1388
sI103
g1409
sI136
(dp1584
g481
F0.427010866328282
ssI135
(dp1585
g481
F0.11873566601433741
ssI147
(dp1586
g481
F0.3043983372118695
ssI148
(dp1587
g481
F0.189376514016698
ssI149
(dp1588
g481
F0.2805122847280816
ssI150
(dp1589
g481
F0.36686511432440644
ssI100
g1376
sI133
g1582
ssI135
(dp1590
I98
g1358
sI99
g1366
sI100
g1374
sI101
g1383
sI102
g1393
sI136
(dp1591
g481
F0.11200457491671524
ssI137
(dp1592
g481
F0.26104746386895133
ssI138
(dp1593
g481
F0.33462432947991083
ssI146
(dp1594
g481
F0.1258221185120573
ssI147
(dp1595
g481
F0.15984371005876133
ssI148
(dp1596
g481
F0.1924862823092293
ssI149
(dp1597
g481
F0.4317469034166821
ssI134
g1585
sI133
g1576
ssI136
(dp1598
I96
g1347
sI97
g1352
sI98
g1359
sI99
g1367
sI134
g1584
sI135
g1591
sI137
(dp1599
g481
F0.06455339856757553
ssI138
(dp1600
g481
F0.0959154335243822
ssI139
(dp1601
g481
F0.07371574965100425
ssI140
(dp1602
g481
F0.09919362783320883
ssI146
(dp1603
g481
F0.16271638762408835
ssI147
(dp1604
g481
F0.23705894686352993
ssI148
(dp1605
g481
F0.3967558051813368
sssI137
(dp1606
I96
g1348
sI97
g1353
sI98
g1360
sI99
g1368
sI135
g1592
sI136
g1599
sI138
(dp1607
g481
F0.014787454521115536
ssI139
(dp1608
g481
F0.06099218924901087
ssI140
(dp1609
g481
F0.12366197493560857
ssI146
(dp1610
g481
F0.32315435836975354
sssI138
(dp1611
I97
g1354
sI98
g1361
sI135
g1593
sI136
g1600
sI137
g1607
sI139
(dp1612
g481
F0.03961271197185018
ssI140
(dp1613
g481
F0.09448541887598196
sssI139
(dp1614
I97
g1355
sI136
g1601
sI137
g1608
sI138
g1612
sI140
(dp1615
g481
F0.02660191092375427
ssI141
(dp1616
g481
F0.08482772461745153
ssI146
(dp1617
g481
F0.26627858864127585
sssI140
(dp1618
I136
g1602
sI137
g1609
sI138
g1613
sI139
g1615
sI141
(dp1619
g481
F0.028462941501033463
ssI142
(dp1620
g481
F0.06357907656314563
ssI143
(dp1621
g481
F0.11304748629124434
ssI144
(dp1622
g481
F0.11000617370470865
ssI145
(dp1623
g481
F0.1638812692218069
ssI146
(dp1624
g481
F0.17881889206386592
sssI141
(dp1625
I139
g1616
sI140
g1619
sI142
(dp1626
g481
F0.020454944625039065
ssI143
(dp1627
g481
F0.06154845848016557
ssI144
(dp1628
g481
F0.0808990316826581
ssI145
(dp1629
g481
F0.12441844966734823
ssI146
(dp1630
g481
F0.16123654124260006
sssI142
(dp1631
I144
(dp1632
g481
F0.06022768151939106
ssI145
(dp1633
g481
F0.10340821151528021
ssI140
g1620
sI141
g1626
sI143
(dp1634
g481
F0.025934499638686787
sssI143
(dp1635
I140
g1621
sI141
g1627
sI142
g1634
sI144
(dp1636
g481
F0.025490988227113046
ssI145
(dp1637
g481
F0.047374304960345746
ssI146
(dp1638
g481
F0.10073421730721879
sssI144
(dp1639
I140
g1622
sI141
g1628
sI142
g1632
sI143
g1636
sI145
(dp1640
g481
F0.0202063979466206
ssI146
(dp1641
g481
F0.0602919379576788
sssI145
(dp1642
I140
g1623
sI141
g1629
sI142
g1633
sI143
g1637
sI144
g1640
sI146
(dp1643
g481
F0.022417078297353697
ssI147
(dp1644
g481
F0.0924376106138204
sssI146
(dp1645
I135
g1594
sI136
g1603
sI137
g1610
sI139
g1617
sI140
g1624
sI141
g1630
sI143
g1638
sI144
g1641
sI145
g1643
sI147
(dp1646
g481
F0.04886282487113806
ssI148
(dp1647
g481
F0.14957244284921
sssI147
(dp1648
I134
g1586
sI135
g1595
sI136
g1604
sI145
g1644
sI146
g1646
sI148
(dp1649
g481
F0.043090060196358144
ssI149
(dp1650
g481
F0.17389442602443678
sssI148
(dp1651
I133
g1577
sI134
g1587
sI135
g1596
sI136
g1605
sI146
g1647
sI147
g1649
sI149
(dp1652
g481
F0.06707271755999805
ssI150
(dp1653
g481
F0.20284319251475147
ssI151
(dp1654
g481
F0.4324192003118481
sssI149
(dp1655
I133
g1578
sI134
g1588
sI135
g1597
sI147
g1650
sI148
g1652
sI150
(dp1656
g481
F0.06403548911006289
ssI151
(dp1657
g481
F0.1926969316646462
sssI150
(dp1658
I133
g1579
sI134
g1589
sI148
g1653
sI149
g1656
sI151
(dp1659
g481
F0.054816367944805794
ssI152
(dp1660
g481
F0.1540581876302095
ssI153
(dp1661
g481
F0.32404017992496614
sssI151
(dp1662
I131
g1570
sI132
g1572
sI133
g1580
sI148
g1654
sI149
g1657
sI150
g1659
sI152
(dp1663
g481
F0.05378971406193572
ssI153
(dp1664
g481
F0.13733943489115163
ssI154
(dp1665
g481
F0.23820153506283614
sssI152
(dp1666
I133
g1581
sI150
g1660
sI151
g1663
sI153
(dp1667
g481
F0.04511212367654577
ssI154
(dp1668
g481
F0.11423439929719646
ssI155
(dp1669
g481
F0.23913660866310987
sssI153
(dp1670
I150
g1661
sI151
g1664
sI152
g1667
sI154
(dp1671
g481
F0.039956261732401396
ssI155
(dp1672
g481
F0.1067424036810532
ssI156
(dp1673
g481
F0.22031490457188424
sssI154
(dp1674
I151
g1665
sI152
g1668
sI153
g1671
sI155
(dp1675
g481
F0.045622256217594984
ssI156
(dp1676
g481
F0.13726675013397133
ssI157
(dp1677
g481
F0.3265306611975605
sssI155
(dp1678
I152
g1669
sI153
g1672
sI154
g1675
sI156
(dp1679
g481
F0.05527087637928369
ssI157
(dp1680
g481
F0.16241722810861625
ssI158
(dp1681
g481
F0.4047050503741599
sssI156
(dp1682
I153
g1673
sI154
g1676
sI155
g1679
sI157
(dp1683
g481
F0.0699226208740591
ssI158
(dp1684
g481
F0.25473762790749244
sssI157
(dp1685
I154
g1677
sI155
g1680
sI156
g1683
sI158
(dp1686
g481
F0.10855335647455808
ssI159
(dp1687
g481
F0.3246976597334145
sssI158
(dp1688
I160
(dp1689
g481
F0.3544470387859051
ssI161
(dp1690
g481
F0.37838246874692294
ssI155
g1681
sI156
g1684
sI157
g1686
sI159
(dp1691
g481
F0.08984948225277287
sssI159
(dp1692
I160
(dp1693
g481
F0.11371783152543634
ssI161
(dp1694
g481
F0.27557783990364115
ssI100
g1375
sI103
g1408
sI157
g1687
sI158
g1691
ssI160
(dp1695
I161
(dp1696
g481
F0.10534107148719202
ssI162
(dp1697
g481
F0.42919954870429416
ssI158
g1689
sI159
g1693
ssI161
(dp1698
I160
g1696
sI162
(dp1699
g481
F0.1625997566625176
ssI158
g1690
sI159
g1694
ssI162
(dp1700
I160
g1697
sI161
g1699
sI163
(dp1701
g481
F0.15210054519997274
ssI164
(dp1702
g481
F0.2655463089766463
sssI163
(dp1703
I162
g1701
sI164
(dp1704
g481
F0.07257260787622384
ssI165
(dp1705
g481
F0.15711246524650246
ssI94
g1335
sI166
(dp1706
g481
F0.18911420799524925
sssI164
(dp1707
I162
g1702
sI163
g1704
sI165
(dp1708
g481
F0.06574634763783456
ssI166
(dp1709
g481
F0.11510922498697863
ssI167
(dp1710
g481
F0.17117296779215366
ssI94
g1336
ssI165
(dp1711
I163
g1705
sI164
g1708
sI166
(dp1712
g481
F0.06894714299754816
ssI167
(dp1713
g481
F0.07934995924372056
ssI91
g1299
sI92
g1313
sI93
g1326
sI94
g1337
ssI166
(dp1714
I163
g1706
sI164
g1709
sI165
g1712
sI167
(dp1715
g481
F0.030055668384457192
ssI168
(dp1716
g481
F0.03944777063664446
ssI90
g1284
sI91
g1300
sI92
g1314
sI93
g1327
sI94
g1338
ssI167
(dp1717
I164
g1710
sI165
g1713
sI166
g1715
sI168
(dp1718
g481
F0.017062080892529245
ssI169
(dp1719
g481
F0.02419308058080789
ssI89
g1269
sI90
g1285
sI91
g1301
sI92
g1315
ssI168
(dp1720
I166
g1716
sI167
g1718
sI169
(dp1721
g481
F0.01424401575357913
ssI170
(dp1722
g481
F0.0278063605316824
ssI88
g1254
sI89
g1270
sI90
g1286
sI91
g1302
sI92
g1316
sI394
(dp1723
g481
F0.09278855075545013
sssI169
(dp1724
I395
(dp1725
g481
F0.06608848880693637
ssI167
g1719
sI168
g1721
sI170
(dp1726
g481
F0.0104378917082489
ssI171
(dp1727
g481
F0.02865049259821743
ssI172
(dp1728
g481
F0.042922242256960855
ssI87
g1239
sI88
g1255
sI89
g1271
sI90
g1287
sI91
g1303
ssI170
(dp1729
I168
g1722
sI169
g1726
sI171
(dp1730
g481
F0.008811137112976325
ssI172
(dp1731
g481
F0.02430520082854743
ssI173
(dp1732
g481
F0.07029791062516434
ssI86
g1226
sI87
g1240
sI88
g1256
sI89
g1272
sI90
g1288
ssI171
(dp1733
I169
g1727
sI170
g1730
sI172
(dp1734
g481
F0.010716855976157149
ssI173
(dp1735
g481
F0.04200102097200645
ssI86
g1227
sI87
g1241
sI88
g1257
sI89
g1273
ssI172
(dp1736
I169
g1728
sI170
g1731
sI171
g1734
sI396
(dp1737
g481
F0.0642058712918163
ssI173
(dp1738
g481
F0.02083250581246208
ssI174
(dp1739
g481
F0.0708186906018346
ssI175
(dp1740
g481
F0.14487438357791507
ssI84
g1205
sI85
g1214
sI86
g1228
sI87
g1242
sI88
g1258
sI89
g1274
sI397
(dp1741
g481
F0.071233679388215
sssI173
(dp1742
I170
g1732
sI171
g1735
sI172
g1738
sI397
(dp1743
g481
F0.10396795561590368
ssI174
(dp1744
g481
F0.040654268698984856
ssI175
(dp1745
g481
F0.09494993462274565
ssI85
g1215
sI86
g1229
sI87
g1243
sI88
g1259
ssI174
(dp1746
I268
(dp1747
g481
F0.40993224666263156
ssI172
g1739
sI173
g1744
sI175
(dp1748
g481
F0.04314420102375772
ssI176
(dp1749
g481
F0.1228396855902891
ssI177
(dp1750
g481
F0.1614317429444654
ssI269
(dp1751
g481
F0.4392349298636636
ssI85
g1216
sI86
g1230
sI397
(dp1752
g481
F0.10789801592226397
ssI345
(dp1753
g481
F0.16725062590856002
ssI346
(dp1754
g481
F0.15815876920760713
ssI399
(dp1755
g481
F0.12499778155320529
sssI175
(dp1756
I33
g790
sI34
g800
sI268
(dp1757
g481
F0.4683019110281798
ssI172
g1740
sI173
g1745
sI174
g1748
sI269
(dp1758
g481
F0.4820000429884572
ssI176
(dp1759
g481
F0.046187641581774214
ssI177
(dp1760
g481
F0.09419563995417847
ssI84
g1210
sI85
g1217
sI345
(dp1761
g481
F0.20680041004120595
sssI176
(dp1762
I33
g791
sI34
g801
sI267
(dp1763
g481
F0.4440603922262878
ssI268
(dp1764
g481
F0.4998079850858561
ssI174
g1749
sI175
g1759
sI177
(dp1765
g481
F0.1001492673872547
ssI178
(dp1766
g481
F0.1682764937186915
ssI84
g1203
sI344
(dp1767
g481
F0.33662718493871263
ssI345
(dp1768
g481
F0.2637314145356914
sssI177
(dp1769
I33
g792
sI34
g802
sI35
g812
sI36
g826
sI174
g1750
sI175
g1760
sI176
g1765
sI178
(dp1770
g481
F0.05429239985534038
ssI179
(dp1771
g481
F0.2094163908932084
ssI84
g1204
sI85
g1212
sI345
(dp1772
g481
F0.3217006698353918
ssI344
(dp1773
g481
F0.4854834675807299
ssI180
(dp1774
g481
F0.27647348829248436
sssI178
(dp1775
I33
g793
sI34
g803
sI35
g815
sI36
g827
sI176
g1766
sI177
g1770
sI179
(dp1776
g481
F0.15898540715281054
ssI180
(dp1777
g481
F0.2085252803681664
ssI181
(dp1778
g481
F0.31832339915515134
sssI179
(dp1779
I35
g819
sI177
g1771
sI178
g1776
sI180
(dp1780
g481
F0.05728176800088961
ssI181
(dp1781
g481
F0.16904243910351047
ssI182
(dp1782
g481
F0.2807260614762908
ssI218
(dp1783
g481
F0.3252164463321771
ssI219
(dp1784
g481
F0.2094355719777494
ssI220
(dp1785
g481
F0.2822705726230026
ssI221
(dp1786
g481
F0.2693856733639889
sssI180
(dp1787
I35
g818
sI36
g828
sI219
(dp1788
g481
F0.22340314833343605
ssI177
g1774
sI178
g1777
sI179
g1780
sI181
(dp1789
g481
F0.07316197135414004
ssI182
(dp1790
g481
F0.17339169167795823
ssI217
(dp1791
g481
F0.36945392811468714
ssI25
g722
sI218
(dp1792
g481
F0.2983869393758102
ssI27
g748
sI220
(dp1793
g481
F0.33970313452126216
sssI181
(dp1794
I216
(dp1795
g481
F0.4446285118456172
ssI178
g1778
sI179
g1781
sI180
g1789
sI182
(dp1796
g481
F0.10104647123918745
ssI183
(dp1797
g481
F0.1854118925333858
ssI24
g711
sI25
g723
sI217
(dp1798
g481
F0.18808790038063314
ssI219
(dp1799
g481
F0.20359239490637232
ssI220
(dp1800
g481
F0.41005367344180427
ssI218
(dp1801
g481
F0.19118406010869948
sssI182
(dp1802
I217
(dp1803
g481
F0.2008420602525108
ssI218
(dp1804
g481
F0.19117734903856196
ssI39
g852
sI220
(dp1805
g481
F0.3382947586993343
ssI43
g870
sI77
g1162
sI184
(dp1806
g481
F0.11353305952251001
ssI179
g1782
sI180
g1790
sI181
g1796
sI23
g677
sI24
g696
sI25
g724
sI26
g737
sI219
(dp1807
g481
F0.2416137019075812
ssI216
(dp1808
g481
F0.4427772695409245
ssI183
(dp1809
g481
F0.05278836736573134
ssI215
(dp1810
g481
F0.32600747652242074
sssI183
(dp1811
I214
(dp1812
g481
F0.14575878775716988
ssI217
(dp1813
g481
F0.16467617998056558
ssI182
g1809
sI43
g871
sI44
g879
sI46
g888
sI184
(dp1814
g481
F0.049137943234019266
ssI215
(dp1815
g481
F0.1483167299070605
ssI21
g652
sI22
g674
sI23
g688
sI24
g709
sI25
g729
sI26
g738
sI219
(dp1816
g481
F0.41698899502468917
ssI216
(dp1817
g481
F0.26273989195246317
ssI218
(dp1818
g481
F0.26854258082834803
ssI185
(dp1819
g481
F0.08690901396080367
ssI181
g1797
ssI184
(dp1820
I192
(dp1821
g481
F0.18210838562311063
ssI214
(dp1822
g481
F0.12378049266279856
ssI215
(dp1823
g481
F0.13119455769441477
ssI182
g1806
sI73
g1135
sI43
g875
sI218
(dp1824
g481
F0.3134064728742396
ssI217
(dp1825
g481
F0.26100312377890583
ssI216
(dp1826
g481
F0.33467763806474626
ssI20
g642
sI21
g653
sI22
g667
sI23
g687
sI24
g705
sI25
g721
sI186
(dp1827
g481
F0.06117935216702034
ssI183
g1814
sI185
(dp1828
g481
F0.031478199033826586
ssI213
(dp1829
g481
F0.2006199268390275
sssI185
(dp1830
I192
(dp1831
g481
F0.09262179469406945
ssI449
(dp1832
g481
F0.11637793480168959
ssI213
(dp1833
g481
F0.08352257867669885
ssI215
(dp1834
g481
F0.08840590548750944
ssI214
(dp1835
g481
F0.04825858138925268
ssI183
g1819
sI216
(dp1836
g481
F0.2874610828489549
ssI46
g889
sI184
g1828
sI20
g643
sI21
g657
sI22
g671
sI23
g692
sI24
g710
sI212
(dp1837
g481
F0.1930842375773991
ssI186
(dp1838
g481
F0.01436935662816724
ssI187
(dp1839
g481
F0.024135193347564553
ssI188
(dp1840
g481
F0.042719678657146064
ssI190
(dp1841
g481
F0.058330844036258
ssI191
(dp1842
g481
F0.07541344120265264
sssI186
(dp1843
I192
(dp1844
g481
F0.05913108417627635
ssI449
(dp1845
g481
F0.06890225098820653
ssI213
(dp1846
g481
F0.08063383757407364
ssI451
(dp1847
g481
F0.06597731510478916
ssI212
(dp1848
g481
F0.1785116706588288
ssI214
(dp1849
g481
F0.06507787402068729
ssI215
(dp1850
g481
F0.1115921130434273
ssI450
(dp1851
g481
F0.0786979331243532
ssI19
g632
sI20
g644
sI21
g658
sI22
g672
sI23
g691
sI184
g1827
sI185
g1838
sI187
(dp1852
g481
F0.01178174369515751
ssI188
(dp1853
g481
F0.02743932900255653
ssI189
(dp1854
g481
F0.03316298175163152
ssI190
(dp1855
g481
F0.02458372381319718
ssI191
(dp1856
g481
F0.04367095132281142
sssI187
(dp1857
I213
(dp1858
g481
F0.09761466314083815
ssI451
(dp1859
g481
F0.08215118822373507
ssI214
(dp1860
g481
F0.08518489570684751
ssI19
g633
sI20
g645
sI21
g659
sI22
g673
sI185
g1839
sI186
g1852
sI188
(dp1861
g481
F0.014435751936788619
ssI189
(dp1862
g481
F0.03215067591189627
ssI190
(dp1863
g481
F0.03185336185692145
ssI191
(dp1864
g481
F0.06001531646020917
sssI188
(dp1865
I451
(dp1866
g481
F0.07443285189556585
ssI452
(dp1867
g481
F0.08300951972838212
ssI213
(dp1868
g481
F0.06744642898670765
ssI185
g1840
sI186
g1853
sI187
g1861
sI189
(dp1869
g481
F0.01463115387165969
ssI190
(dp1870
g481
F0.02480531493303489
ssI191
(dp1871
g481
F0.04005161321730936
sssI189
(dp1872
I450
(dp1873
g481
F0.05450821073787369
ssI451
(dp1874
g481
F0.03505596636690942
ssI452
(dp1875
g481
F0.04317164594201077
ssI453
(dp1876
g481
F0.06516649028227459
ssI186
g1854
sI187
g1862
sI188
g1869
sI190
(dp1877
g481
F0.007392243759977165
ssI191
(dp1878
g481
F0.01938649823170197
sssI190
(dp1879
I192
(dp1880
g481
F0.028870532788491946
ssI449
(dp1881
g481
F0.045064921972212534
ssI213
(dp1882
g481
F0.07597322695440956
ssI451
(dp1883
g481
F0.0201477071235647
ssI452
(dp1884
g481
F0.039002316974776394
ssI453
(dp1885
g481
F0.06015463044634023
ssI450
(dp1886
g481
F0.031426285321539786
ssI14
g581
sI15
g591
sI16
g601
sI17
g611
sI19
g634
sI21
g660
sI185
g1841
sI186
g1855
sI187
g1863
sI188
g1870
sI189
g1877
sI191
(dp1887
g481
F0.012523784476407998
sssI191
(dp1888
I192
(dp1889
g481
F0.011528167905830083
ssI193
(dp1890
g481
F0.052754185380840465
ssI450
(dp1891
g481
F0.0418986463563463
ssI451
(dp1892
g481
F0.03404581354261087
ssI452
(dp1893
g481
F0.03319132480211461
ssI448
(dp1894
g481
F0.11279518010898167
ssI449
(dp1895
g481
F0.06619107756851349
ssI14
g582
sI17
g612
sI211
(dp1896
g481
F0.09561290992956399
ssI212
(dp1897
g481
F0.0789753212445107
ssI21
g661
sI214
(dp1898
g481
F0.0646215578288369
ssI185
g1842
sI186
g1856
sI187
g1864
sI188
g1871
sI189
g1878
sI190
g1887
sI213
(dp1899
g481
F0.04614762974550617
sssI192
(dp1900
I448
(dp1901
g481
F0.07740217464557438
ssI193
(dp1902
g481
F0.029034290797715127
ssI194
(dp1903
g481
F0.1086515583961257
ssI451
(dp1904
g481
F0.04025090670642033
ssI449
(dp1905
g481
F0.05367077996414761
ssI450
(dp1906
g481
F0.037909855669108115
ssI17
g603
sI210
(dp1907
g481
F0.20675782478483828
ssI211
(dp1908
g481
F0.08939906126387176
ssI212
(dp1909
g481
F0.08143661442345174
ssI213
(dp1910
g481
F0.05954181933409197
ssI214
(dp1911
g481
F0.07399317102784055
ssI215
(dp1912
g481
F0.09729927427064924
ssI184
g1821
sI185
g1831
sI186
g1844
sI447
(dp1913
g481
F0.09214365327826729
ssI190
g1880
sI191
g1889
ssI193
(dp1914
I448
(dp1915
g481
F0.0942782943686524
ssI450
(dp1916
g481
F0.06716737536366284
ssI14
g570
sI16
g594
sI53
g923
sI60
g980
sI446
(dp1917
g481
F0.1890470220525107
ssI447
(dp1918
g481
F0.08217299505423704
ssI192
g1902
sI449
(dp1919
g481
F0.10196447945357756
ssI194
(dp1920
g481
F0.03662393283095346
ssI195
(dp1921
g481
F0.15164707359165874
ssI196
(dp1922
g481
F0.4100384044712533
ssI209
(dp1923
g481
F0.13681776708873195
ssI210
(dp1924
g481
F0.10602257149854659
ssI211
(dp1925
g481
F0.05173887248360599
ssI212
(dp1926
g481
F0.07524306674894826
ssI213
(dp1927
g481
F0.10210652768367896
ssI214
(dp1928
g481
F0.1391284741589863
ssI215
(dp1929
g481
F0.1500408333700025
ssI62
g1007
sI191
g1890
ssI194
(dp1930
I448
(dp1931
g481
F0.1802861045560766
ssI449
(dp1932
g481
F0.22155291110187528
ssI52
g914
sI54
g931
sI444
(dp1933
g481
F0.3861763417430649
ssI445
(dp1934
g481
F0.3703149335251535
ssI446
(dp1935
g481
F0.13127910424933914
ssI447
(dp1936
g481
F0.11298255190448292
ssI192
g1903
sI193
g1920
sI195
(dp1937
g481
F0.058973134571735655
ssI196
(dp1938
g481
F0.22250954401774595
ssI197
(dp1939
g481
F0.42472706302195795
ssI206
(dp1940
g481
F0.16293481796935078
ssI208
(dp1941
g481
F0.179461219127951
ssI209
(dp1942
g481
F0.06721811818503069
ssI210
(dp1943
g481
F0.06320636289503948
ssI211
(dp1944
g481
F0.06426536254626988
ssI212
(dp1945
g481
F0.10389368851984691
ssI215
(dp1946
g481
F0.2130971441595744
ssI60
g981
sI62
g1012
ssI195
(dp1947
I448
(dp1948
g481
F0.33527430502143785
ssI193
g1921
sI194
g1937
sI196
(dp1949
g481
F0.083823605075293
ssI197
(dp1950
g481
F0.17798588617553712
ssI198
(dp1951
g481
F0.4070036139996931
ssI200
(dp1952
g481
F0.26927542020647605
ssI202
(dp1953
g481
F0.4019077409419416
ssI205
(dp1954
g481
F0.12274264127040904
ssI206
(dp1955
g481
F0.048345594473767226
ssI207
(dp1956
g481
F0.056676139244404934
ssI208
(dp1957
g481
F0.06239143659981338
ssI209
(dp1958
g481
F0.03975212721690975
ssI210
(dp1959
g481
F0.09976649364971225
ssI211
(dp1960
g481
F0.1794264862683908
ssI446
(dp1961
g481
F0.11158051751157211
ssI445
(dp1962
g481
F0.33226244844197506
ssI60
g982
sI61
g993
sI62
g1015
sI447
(dp1963
g481
F0.217195432701401
sssI196
(dp1964
I193
g1922
sI194
g1938
sI195
g1949
sI197
(dp1965
g481
F0.05326980397177891
ssI198
(dp1966
g481
F0.16231016673805482
ssI199
(dp1967
g481
F0.27167478545381785
ssI200
(dp1968
g481
F0.2096149807004418
ssI206
(dp1969
g481
F0.1574629256129806
ssI207
(dp1970
g481
F0.09424777300480877
ssI208
(dp1971
g481
F0.03545310029023043
ssI209
(dp1972
g481
F0.09371471632536865
ssI210
(dp1973
g481
F0.16120005458808012
ssI54
g932
sI446
(dp1974
g481
F0.3188545483630214
sssI197
(dp1975
I194
g1939
sI195
g1950
sI196
g1965
sI198
(dp1976
g481
F0.05901410549149301
ssI199
(dp1977
g481
F0.10097136579067388
ssI200
(dp1978
g481
F0.09054386301194399
ssI201
(dp1979
g481
F0.40829290240095945
ssI206
(dp1980
g481
F0.19212109330541474
ssI207
(dp1981
g481
F0.14815635131369184
ssI208
(dp1982
g481
F0.09320320722890889
ssI209
(dp1983
g481
F0.21993027721184774
ssI446
(dp1984
g481
F0.4172476056916631
sssI198
(dp1985
I195
g1951
sI196
g1966
sI197
g1976
sI199
(dp1986
g481
F0.04237356157574857
ssI200
(dp1987
g481
F0.11296379979841566
ssI201
(dp1988
g481
F0.46063073074789057
ssI208
(dp1989
g481
F0.2652480919461972
sssI199
(dp1990
I200
(dp1991
g481
F0.07161131843680309
ssI201
(dp1992
g481
F0.3805302043699872
ssI196
g1967
sI197
g1977
sI198
g1986
ssI200
(dp1993
I195
g1952
sI196
g1968
sI197
g1978
sI198
g1987
sI199
g1991
sI201
(dp1994
g481
F0.1581300744093542
ssI202
(dp1995
g481
F0.2731735674899146
ssI203
(dp1996
g481
F0.3326746061783041
ssI204
(dp1997
g481
F0.2703154667732789
ssI205
(dp1998
g481
F0.22649826767096493
ssI206
(dp1999
g481
F0.19446633030484886
ssI445
(dp2000
g481
F0.43179720444724884
ssI446
(dp2001
g481
F0.339625532294416
sssI201
(dp2002
I64
g1051
sI197
g1979
sI198
g1988
sI199
g1992
sI200
g1994
sI202
(dp2003
g481
F0.12229979394965575
ssI203
(dp2004
g481
F0.1712001294767513
ssI204
(dp2005
g481
F0.1841409140682298
ssI238
(dp2006
g481
F0.26395327480351116
ssI239
(dp2007
g481
F0.22478572540800423
ssI240
(dp2008
g481
F0.20520481251385145
ssI241
(dp2009
g481
F0.29536834900573944
ssI242
(dp2010
g481
F0.3505297394112256
ssI446
(dp2011
g481
F0.34673639177463694
ssI445
(dp2012
g481
F0.2883612396740562
ssI62
g1008
sI63
g1026
ssI202
(dp2013
I61
g994
sI441
(dp2014
g481
F0.383179428357054
ssI442
(dp2015
g481
F0.2846203041601556
ssI444
(dp2016
g481
F0.3163759721748032
ssI445
(dp2017
g481
F0.1392252035678573
ssI446
(dp2018
g481
F0.19105598025250203
ssI447
(dp2019
g481
F0.38303342004481244
ssI64
g1052
sI65
g1063
sI195
g1953
sI200
g1995
sI201
g2003
sI203
(dp2020
g481
F0.04443754425483361
ssI204
(dp2021
g481
F0.08621026474930571
ssI205
(dp2022
g481
F0.15617511320764316
ssI206
(dp2023
g481
F0.26282810808359186
ssI239
(dp2024
g481
F0.3213158583662704
ssI240
(dp2025
g481
F0.19460657803237952
ssI241
(dp2026
g481
F0.22095427184675756
ssI242
(dp2027
g481
F0.21506843181637614
ssI62
g1009
sI63
g1027
ssI203
(dp2028
I64
g1053
sI65
g1064
sI66
g1074
sI200
g1996
sI201
g2004
sI202
g2020
sI204
(dp2029
g481
F0.03361126575401348
ssI205
(dp2030
g481
F0.11060397662712028
ssI206
(dp2031
g481
F0.24603202120694187
ssI445
(dp2032
g481
F0.08767442207976994
ssI240
(dp2033
g481
F0.19332813365978813
ssI241
(dp2034
g481
F0.17748301308507147
ssI242
(dp2035
g481
F0.14389701088470394
ssI446
(dp2036
g481
F0.17520129902433365
ssI61
g995
sI62
g1010
sI63
g1028
ssI204
(dp2037
I64
g1054
sI200
g1997
sI201
g2005
sI202
g2021
sI203
g2029
sI205
(dp2038
g481
F0.041902375666599184
ssI206
(dp2039
g481
F0.1350174352693919
ssI60
g983
sI61
g996
sI62
g1011
sI63
g1029
ssI205
(dp2040
I195
g1954
sI200
g1998
sI202
g2022
sI203
g2030
sI204
g2038
sI206
(dp2041
g481
F0.036245863844067694
ssI207
(dp2042
g481
F0.11961873954882919
ssI208
(dp2043
g481
F0.24705769877559794
ssI59
g972
sI60
g984
sI61
g997
sI62
g1014
sI63
g1030
ssI206
(dp2044
I194
g1940
sI195
g1955
sI196
g1969
sI197
g1980
sI200
g1999
sI202
g2023
sI203
g2031
sI204
g2039
sI205
g2041
sI207
(dp2045
g481
F0.03421917977217326
ssI208
(dp2046
g481
F0.1059933463070789
ssI209
(dp2047
g481
F0.11161170579933298
ssI446
(dp2048
g481
F0.12418620348156885
ssI58
g965
sI59
g973
sI60
g985
sI61
g998
sI62
g1013
ssI207
(dp2049
I195
g1956
sI196
g1970
sI197
g1981
sI205
g2042
sI206
g2045
sI208
(dp2050
g481
F0.053994658559368074
ssI209
(dp2051
g481
F0.07353321846260598
ssI55
g941
sI56
g951
sI57
g959
sI58
g966
sI59
g974
sI60
g986
sI61
g999
ssI208
(dp2052
I194
g1941
sI195
g1957
sI196
g1971
sI197
g1982
sI198
g1989
sI205
g2043
sI206
g2046
sI207
g2050
sI209
(dp2053
g481
F0.0405905168729654
ssI210
(dp2054
g481
F0.10906766147819186
ssI54
g933
sI55
g942
sI56
g952
sI57
g960
sI58
g967
sI59
g975
sI60
g987
ssI209
(dp2055
I193
g1923
sI194
g1942
sI195
g1958
sI196
g1972
sI197
g1983
sI206
g2047
sI207
g2051
sI208
g2053
sI210
(dp2056
g481
F0.028518381328688672
ssI211
(dp2057
g481
F0.09891715529849375
ssI53
g925
sI54
g934
sI55
g943
sI56
g953
sI57
g961
sI58
g968
sI59
g976
sI60
g988
sI446
(dp2058
g481
F0.23768802148183668
ssI447
(dp2059
g481
F0.3119894311280715
sssI210
(dp2060
I192
g1907
sI193
g1924
sI194
g1943
sI195
g1959
sI196
g1973
sI208
g2054
sI209
g2056
sI211
(dp2061
g481
F0.03513770181548314
ssI52
g916
sI53
g926
sI54
g935
sI55
g944
sI56
g954
sI212
(dp2062
g481
F0.07838091101728832
ssI447
(dp2063
g481
F0.3238820370608127
sssI211
(dp2064
I192
g1908
sI193
g1925
sI194
g1944
sI195
g1960
sI214
(dp2065
g481
F0.13101407064118664
ssI449
(dp2066
g481
F0.2621115190722716
ssI213
(dp2067
g481
F0.07373005842478204
ssI450
(dp2068
g481
F0.19073127212174867
ssI209
g2057
sI210
g2061
sI51
g908
sI52
g915
sI53
g924
sI54
g936
sI55
g945
sI212
(dp2069
g481
F0.018096241650607994
ssI448
(dp2070
g481
F0.2782912863287835
ssI447
(dp2071
g481
F0.2408468521142891
ssI191
g1896
ssI212
(dp2072
I192
g1909
sI193
g1926
sI194
g1945
sI214
(dp2073
g481
F0.07101371708171228
ssI211
g2069
sI449
(dp2074
g481
F0.2575593540301381
ssI213
(dp2075
g481
F0.030973999652419763
ssI210
g2062
sI50
g906
sI51
g911
sI52
g917
sI53
g929
sI54
g939
sI215
(dp2076
g481
F0.11967423047322213
ssI185
g1837
sI186
g1848
sI447
(dp2077
g481
F0.2650078420540748
ssI191
g1897
ssI213
(dp2078
I192
g1910
sI193
g1927
sI212
g2075
sI211
g2067
sI449
(dp2079
g481
F0.18845795217879593
ssI50
g904
sI51
g912
sI52
g921
sI214
(dp2080
g481
F0.021542439022657553
ssI215
(dp2081
g481
F0.08004373585418738
ssI184
g1829
sI185
g1833
sI186
g1846
sI187
g1858
sI188
g1868
sI190
g1882
sI191
g1899
ssI214
(dp2082
I192
g1911
sI193
g1928
sI213
g2080
sI217
(dp2083
g481
F0.25539162279945804
ssI183
g1812
sI46
g887
sI184
g1822
sI50
g905
sI211
g2065
sI212
g2073
sI21
g647
sI22
g668
sI23
g676
sI24
g694
sI185
g1835
sI186
g1849
sI187
g1860
sI216
(dp2084
g481
F0.15362801416732194
ssI215
(dp2085
g481
F0.03357156904182065
ssI191
g1898
ssI215
(dp2086
I192
g1912
sI193
g1929
sI194
g1946
sI217
(dp2087
g481
F0.171231394620808
ssI214
g2085
sI444
(dp2088
g481
F0.3795701875051136
ssI184
g1823
sI212
g2076
sI213
g2081
sI182
g1810
sI183
g1815
sI24
g704
sI185
g1834
sI186
g1850
sI216
(dp2089
g481
F0.08039881445054103
ssI218
(dp2090
g481
F0.40227022263024925
ssI447
(dp2091
g481
F0.19743455075302183
sssI216
(dp2092
I182
g1808
sI215
g2089
sI181
g1795
sI214
g2084
sI183
g1817
sI184
g1826
sI185
g1836
sI217
(dp2093
g481
F0.10292145056403862
ssI218
(dp2094
g481
F0.37698028564236397
sssI217
(dp2095
I214
g2083
sI215
g2087
sI184
g1825
sI180
g1791
sI181
g1798
sI182
g1803
sI183
g1813
sI24
g695
sI25
g725
sI218
(dp2096
g481
F0.14352959839316384
ssI219
(dp2097
g481
F0.3706873825579446
ssI216
g2093
ssI218
(dp2098
I440
(dp2099
g481
F0.4003063931498546
ssI444
(dp2100
g481
F0.4510309681335105
ssI215
g2090
sI216
g2094
sI443
(dp2101
g481
F0.4797664013951917
ssI179
g1783
sI180
g1792
sI181
g1801
sI182
g1804
sI183
g1818
sI184
g1824
sI217
g2096
sI219
(dp2102
g481
F0.10646748304557983
ssI220
(dp2103
g481
F0.2511467489292734
ssI221
(dp2104
g481
F0.3209408076490846
sssI219
(dp2105
I179
g1784
sI180
g1788
sI181
g1799
sI182
g1807
sI183
g1816
sI440
(dp2106
g481
F0.30670609421038286
ssI217
g2097
sI218
g2102
sI220
(dp2107
g481
F0.13056448966508707
ssI221
(dp2108
g481
F0.18645836698728524
ssI222
(dp2109
g481
F0.3191751776980056
sssI220
(dp2110
I77
g1163
sI80
g1183
sI81
g1190
sI179
g1785
sI180
g1793
sI181
g1800
sI182
g1805
sI439
(dp2111
g481
F0.34664652410177405
ssI440
(dp2112
g481
F0.30236514236668205
ssI218
g2103
sI219
g2107
sI221
(dp2113
g481
F0.09687510170947539
ssI222
(dp2114
g481
F0.2534858311538665
sssI221
(dp2115
I81
g1191
sI179
g1786
sI436
(dp2116
g481
F0.2534409035029288
ssI341
(dp2117
g481
F0.3015209490233689
ssI342
(dp2118
g481
F0.28763884015063323
ssI439
(dp2119
g481
F0.2111163368001796
ssI440
(dp2120
g481
F0.1910815227565289
ssI218
g2104
sI219
g2108
sI220
g2113
sI222
(dp2121
g481
F0.12111047385819844
ssI223
(dp2122
g481
F0.2373867357468505
sssI222
(dp2123
I224
(dp2124
g481
F0.14318199177949717
ssI226
(dp2125
g481
F0.37631826922361594
ssI227
(dp2126
g481
F0.3023338512870566
ssI228
(dp2127
g481
F0.40843968683796594
ssI438
(dp2128
g481
F0.12050077817161133
ssI437
(dp2129
g481
F0.13101094502285782
ssI340
(dp2130
g481
F0.1654493582837049
ssI341
(dp2131
g481
F0.1591248190257078
ssI342
(dp2132
g481
F0.20457462841691498
ssI439
(dp2133
g481
F0.08002287939162282
ssI440
(dp2134
g481
F0.11864734113389275
ssI436
(dp2135
g481
F0.11257675745855181
ssI219
g2109
sI220
g2114
sI221
g2121
sI223
(dp2136
g481
F0.06208144395894253
sssI223
(dp2137
I224
(dp2138
g481
F0.02768134635252171
ssI225
(dp2139
g481
F0.10074166648741183
ssI226
(dp2140
g481
F0.14466303092220348
ssI227
(dp2141
g481
F0.12076270335954219
ssI228
(dp2142
g481
F0.2267555367480616
ssI339
(dp2143
g481
F0.08658794855395453
ssI340
(dp2144
g481
F0.048426609147883715
ssI341
(dp2145
g481
F0.0692499453007122
ssI342
(dp2146
g481
F0.14354425377041982
ssI439
(dp2147
g481
F0.11715592324854142
ssI436
(dp2148
g481
F0.15197876204884384
ssI348
(dp2149
g481
F0.11857781426887873
ssI221
g2122
sI222
g2136
ssI224
(dp2150
I413
(dp2151
g481
F0.17386158812609478
ssI414
(dp2152
g481
F0.1009456505594289
ssI431
(dp2153
g481
F0.10618786564097542
ssI432
(dp2154
g481
F0.09082579721819971
ssI433
(dp2155
g481
F0.14026179560300012
ssI434
(dp2156
g481
F0.15717642347182928
ssI435
(dp2157
g481
F0.1502084409945748
ssI436
(dp2158
g481
F0.19488141055555225
ssI438
(dp2159
g481
F0.16946616235940784
ssI439
(dp2160
g481
F0.17080727642684898
ssI335
(dp2161
g481
F0.16097549138514666
ssI336
(dp2162
g481
F0.10905336980936042
ssI337
(dp2163
g481
F0.05440454772954141
ssI338
(dp2164
g481
F0.05336643347262693
ssI339
(dp2165
g481
F0.047215264452330714
ssI340
(dp2166
g481
F0.044562115822123397
ssI341
(dp2167
g481
F0.0965881746178471
ssI349
(dp2168
g481
F0.07922336531827907
ssI222
g2124
sI223
g2138
sI225
(dp2169
g481
F0.03447493595316965
ssI226
(dp2170
g481
F0.08493426557713338
ssI227
(dp2171
g481
F0.0928601009004907
ssI228
(dp2172
g481
F0.2427302811120006
sssI225
(dp2173
I224
g2169
sI352
(dp2174
g481
F0.07363657385940388
ssI226
(dp2175
g481
F0.02598563963547905
ssI227
(dp2176
g481
F0.05670906774017934
ssI432
(dp2177
g481
F0.06302535888734767
ssI433
(dp2178
g481
F0.14308315955743006
ssI434
(dp2179
g481
F0.18596219956519522
ssI430
(dp2180
g481
F0.0646940457227545
ssI431
(dp2181
g481
F0.04022056338476436
ssI336
(dp2182
g481
F0.1282639777194374
ssI337
(dp2183
g481
F0.04603771467242199
ssI338
(dp2184
g481
F0.04381055989348503
ssI339
(dp2185
g481
F0.03652532192468662
ssI340
(dp2186
g481
F0.08222521690470593
ssI341
(dp2187
g481
F0.15944061161425196
ssI415
(dp2188
g481
F0.06846148402102328
ssI412
(dp2189
g481
F0.1721667592432171
ssI413
(dp2190
g481
F0.07434700617568152
ssI414
(dp2191
g481
F0.04828366490218309
ssI223
g2139
ssI226
(dp2192
I224
g2170
sI225
g2175
sI227
(dp2193
g481
F0.027978403142164147
ssI228
(dp2194
g481
F0.14249071492433987
ssI415
(dp2195
g481
F0.08638180337320686
ssI412
(dp2196
g481
F0.10791647408289286
ssI431
(dp2197
g481
F0.05506686678703904
ssI413
(dp2198
g481
F0.05466300143632563
ssI432
(dp2199
g481
F0.10880266733266612
ssI433
(dp2200
g481
F0.20464293891404156
ssI339
(dp2201
g481
F0.051380960977185475
ssI340
(dp2202
g481
F0.1119302418930686
ssI341
(dp2203
g481
F0.1792276692149377
ssI414
(dp2204
g481
F0.06856029494525136
ssI439
(dp2205
g481
F0.3755117766502875
ssI410
(dp2206
g481
F0.2083782217441153
ssI411
(dp2207
g481
F0.270950189948178
ssI252
(dp2208
g481
F0.1539776724442232
ssI253
(dp2209
g481
F0.1761650528216276
ssI222
g2125
sI223
g2140
ssI227
(dp2210
I224
g2171
sI225
g2176
sI226
g2193
sI228
(dp2211
g481
F0.0822428836499027
ssI229
(dp2212
g481
F0.38085213049399336
ssI230
(dp2213
g481
F0.41672394101103494
ssI438
(dp2214
g481
F0.3208297328598996
ssI412
(dp2215
g481
F0.10445257966106052
ssI442
(dp2216
g481
F0.3656175471632519
ssI341
(dp2217
g481
F0.17266618613787746
ssI413
(dp2218
g481
F0.07686643396678283
ssI254
(dp2219
g481
F0.3076569910861481
ssI414
(dp2220
g481
F0.089312181845118
ssI439
(dp2221
g481
F0.30536313822284017
ssI409
(dp2222
g481
F0.44450495182752936
ssI410
(dp2223
g481
F0.20732169497415115
ssI411
(dp2224
g481
F0.24133680039051408
ssI252
(dp2225
g481
F0.1534378736344098
ssI253
(dp2226
g481
F0.19081876917833643
ssI222
g2126
sI223
g2141
ssI228
(dp2227
I224
g2172
sI226
g2194
sI227
g2211
sI260
(dp2228
g481
F0.3922046595457008
ssI229
(dp2229
g481
F0.1336937347938707
ssI230
(dp2230
g481
F0.2312146754054694
ssI412
(dp2231
g481
F0.19943607218738857
ssI259
(dp2232
g481
F0.43431907638700135
ssI261
(dp2233
g481
F0.24443466164766864
ssI439
(dp2234
g481
F0.471065537016998
ssI408
(dp2235
g481
F0.20652023087568114
ssI409
(dp2236
g481
F0.21919085349804032
ssI410
(dp2237
g481
F0.14010311496972755
ssI411
(dp2238
g481
F0.19649644528189472
ssI341
(dp2239
g481
F0.20775315193366087
ssI413
(dp2240
g481
F0.23630396027820214
ssI222
g2127
sI223
g2142
ssI229
(dp2241
I258
(dp2242
g481
F0.4890122126710545
ssI227
g2212
sI228
g2229
sI230
(dp2243
g481
F0.09333537872698518
ssI231
(dp2244
g481
F0.3101794532065955
ssI408
(dp2245
g481
F0.1985477006426259
ssI409
(dp2246
g481
F0.19007777495318848
ssI410
(dp2247
g481
F0.2634874173217126
ssI411
(dp2248
g481
F0.27929402231430045
ssI412
(dp2249
g481
F0.4896656910127766
sssI230
(dp2250
I227
g2213
sI228
g2230
sI229
g2243
sI231
(dp2251
g481
F0.15611630529419926
ssI232
(dp2252
g481
F0.4324483170661312
ssI409
(dp2253
g481
F0.4169444979394218
ssI410
(dp2254
g481
F0.43856764790711056
ssI411
(dp2255
g481
F0.3494635740950546
ssI412
(dp2256
g481
F0.5058785359449407
sssI231
(dp2257
I256
(dp2258
g481
F0.49919478228928377
ssI229
g2244
sI230
g2251
sI232
(dp2259
g481
F0.14581354161617557
ssI233
(dp2260
g481
F0.3129400697278969
ssI234
(dp2261
g481
F0.4695748538429604
ssI411
(dp2262
g481
F0.4334350218131268
sssI232
(dp2263
I256
(dp2264
g481
F0.10946013068864167
ssI257
(dp2265
g481
F0.1443993849517564
ssI258
(dp2266
g481
F0.18950956591221205
ssI230
g2252
sI231
g2259
sI233
(dp2267
g481
F0.06060080631914798
ssI234
(dp2268
g481
F0.1669004519468576
ssI235
(dp2269
g481
F0.18533907202689814
ssI236
(dp2270
g481
F0.19003495886557764
ssI237
(dp2271
g481
F0.23810820434430868
ssI238
(dp2272
g481
F0.3419375958999062
ssI410
(dp2273
g481
F0.4554491310510698
ssI411
(dp2274
g481
F0.2642091852832776
ssI254
(dp2275
g481
F0.30844471413290997
ssI255
(dp2276
g481
F0.17807505275015256
sssI233
(dp2277
I256
(dp2278
g481
F0.08002223368764956
ssI257
(dp2279
g481
F0.15816875323560606
ssI231
g2260
sI232
g2267
sI234
(dp2280
g481
F0.06844431438453566
ssI235
(dp2281
g481
F0.08003598727241995
ssI236
(dp2282
g481
F0.0859449576521879
ssI237
(dp2283
g481
F0.14699285616000252
ssI238
(dp2284
g481
F0.22303036849919775
ssI411
(dp2285
g481
F0.37289868537296744
ssI254
(dp2286
g481
F0.27807582542168613
ssI255
(dp2287
g481
F0.1592938863639398
sssI234
(dp2288
I256
(dp2289
g481
F0.16354701382208664
ssI257
(dp2290
g481
F0.2361411355365588
ssI231
g2261
sI232
g2268
sI233
g2280
sI235
(dp2291
g481
F0.050471163621857634
ssI236
(dp2292
g481
F0.14569727944084
ssI237
(dp2293
g481
F0.303420902813926
ssI238
(dp2294
g481
F0.45008882996216415
ssI255
(dp2295
g481
F0.3527606462111826
sssI235
(dp2296
I256
(dp2297
g481
F0.09877819107129417
ssI257
(dp2298
g481
F0.16229018602259943
ssI232
g2269
sI233
g2281
sI234
g2291
sI236
(dp2299
g481
F0.05438038012113404
ssI237
(dp2300
g481
F0.1834001240020545
ssI238
(dp2301
g481
F0.331647478264596
ssI255
(dp2302
g481
F0.2485952861481921
sssI236
(dp2303
I256
(dp2304
g481
F0.052685447941182496
ssI257
(dp2305
g481
F0.12022151171416834
ssI232
g2270
sI233
g2282
sI234
g2292
sI235
g2299
sI237
(dp2306
g481
F0.04735236898969332
ssI238
(dp2307
g481
F0.14588926410913688
ssI310
(dp2308
g481
F0.12374177217915194
ssI311
(dp2309
g481
F0.20988749951737654
ssI314
(dp2310
g481
F0.1603716546342565
ssI254
(dp2311
g481
F0.25491296918705475
ssI255
(dp2312
g481
F0.10675507068362772
sssI237
(dp2313
I256
(dp2314
g481
F0.08403194636370856
ssI257
(dp2315
g481
F0.15541686784544848
ssI232
g2271
sI233
g2283
sI234
g2293
sI235
g2300
sI236
g2306
sI238
(dp2316
g481
F0.046297885281639466
ssI239
(dp2317
g481
F0.17087826850511037
ssI307
(dp2318
g481
F0.10413324119374422
ssI310
(dp2319
g481
F0.055848110723306595
ssI311
(dp2320
g481
F0.07826185220573686
ssI313
(dp2321
g481
F0.06078561574492934
ssI314
(dp2322
g481
F0.06112460624006562
ssI412
(dp2323
g481
F0.27488132532877557
ssI253
(dp2324
g481
F0.235172585788157
ssI254
(dp2325
g481
F0.10418807785871635
ssI255
(dp2326
g481
F0.04136388296459127
sssI238
(dp2327
I256
(dp2328
g481
F0.2139519572688657
ssI311
(dp2329
g481
F0.09443576272841621
ssI412
(dp2330
g481
F0.21759301295634473
ssI232
g2272
sI201
g2006
sI234
g2294
sI235
g2301
sI236
g2307
sI237
g2316
sI239
(dp2331
g481
F0.059956583803335115
ssI240
(dp2332
g481
F0.18525112053474366
ssI233
g2284
sI314
(dp2333
g481
F0.06604735437010335
ssI315
(dp2334
g481
F0.09611902595718141
ssI252
(dp2335
g481
F0.3058015800550293
ssI253
(dp2336
g481
F0.12724664653187184
ssI254
(dp2337
g481
F0.05977262354860945
ssI255
(dp2338
g481
F0.09871397927761827
sssI239
(dp2339
I315
(dp2340
g481
F0.07462717167100782
ssI201
g2007
sI202
g2024
sI237
g2317
sI238
g2331
sI413
(dp2341
g481
F0.1528793364592799
ssI240
(dp2342
g481
F0.05138290614326736
ssI241
(dp2343
g481
F0.13134945188734426
ssI412
(dp2344
g481
F0.14818669684177083
ssI311
(dp2345
g481
F0.11774728840961986
ssI314
(dp2346
g481
F0.10654545575000114
ssI251
(dp2347
g481
F0.13548274181049233
ssI252
(dp2348
g481
F0.11167288565078766
ssI253
(dp2349
g481
F0.041359845054078255
ssI254
(dp2350
g481
F0.07509829377126241
ssI255
(dp2351
g481
F0.21402201880972632
sssI240
(dp2352
I64
g1055
sI201
g2008
sI202
g2025
sI203
g2033
sI238
g2332
sI239
g2342
sI241
(dp2353
g481
F0.03055620922414356
ssI242
(dp2354
g481
F0.08175764696619393
ssI243
(dp2355
g481
F0.06477645939543293
ssI244
(dp2356
g481
F0.07721298117266136
ssI445
(dp2357
g481
F0.34875193576184427
ssI250
(dp2358
g481
F0.1468282717094787
ssI251
(dp2359
g481
F0.06736870437809146
ssI252
(dp2360
g481
F0.053534189875130936
ssI253
(dp2361
g481
F0.0798231830288581
ssI254
(dp2362
g481
F0.17337248075288175
ssI442
(dp2363
g481
F0.21958855987024367
sssI241
(dp2364
I64
g1056
sI65
g1065
sI201
g2009
sI202
g2026
sI203
g2034
sI239
g2343
sI240
g2353
sI242
(dp2365
g481
F0.02115706070580905
ssI243
(dp2366
g481
F0.023217261622390302
ssI244
(dp2367
g481
F0.06615598860796494
ssI245
(dp2368
g481
F0.07036019549777482
ssI246
(dp2369
g481
F0.06421152789345018
ssI249
(dp2370
g481
F0.0852340945989607
ssI250
(dp2371
g481
F0.07694316228670908
ssI251
(dp2372
g481
F0.04383030094752655
ssI252
(dp2373
g481
F0.0458388870929714
ssI253
(dp2374
g481
F0.13463131132181005
sssI242
(dp2375
I64
g1057
sI65
g1066
sI66
g1075
sI201
g2010
sI202
g2027
sI203
g2035
sI240
g2354
sI241
g2365
sI243
(dp2376
g481
F0.02551624083497352
ssI244
(dp2377
g481
F0.10321079564018867
ssI245
(dp2378
g481
F0.10757239828563536
ssI246
(dp2379
g481
F0.08385063383749498
ssI249
(dp2380
g481
F0.07556738801185948
ssI250
(dp2381
g481
F0.07973680879079238
ssI251
(dp2382
g481
F0.0810849162575335
ssI252
(dp2383
g481
F0.08978884060148602
ssI63
g1032
ssI243
(dp2384
I240
g2355
sI241
g2366
sI242
g2376
sI244
(dp2385
g481
F0.039627719263099506
ssI245
(dp2386
g481
F0.0447533343904528
ssI246
(dp2387
g481
F0.04353011710835698
ssI247
(dp2388
g481
F0.06946453633552108
ssI249
(dp2389
g481
F0.08261712957979933
ssI250
(dp2390
g481
F0.08250119027891033
ssI251
(dp2391
g481
F0.05908245732057758
sssI244
(dp2392
I417
(dp2393
g481
F0.1110240900439433
ssI240
g2356
sI241
g2367
sI242
g2377
sI243
g2385
sI245
(dp2394
g481
F0.02999191303594229
ssI246
(dp2395
g481
F0.06610160633611367
ssI247
(dp2396
g481
F0.08948497046650143
ssI249
(dp2397
g481
F0.1566466073205584
ssI251
(dp2398
g481
F0.0835783054697601
sssI245
(dp2399
I417
(dp2400
g481
F0.07555067447658255
ssI241
g2368
sI242
g2378
sI243
g2386
sI244
g2394
sI246
(dp2401
g481
F0.02671766860858537
ssI247
(dp2402
g481
F0.05014967741891053
ssI248
(dp2403
g481
F0.10352964130526367
ssI249
(dp2404
g481
F0.10981190813108412
sssI246
(dp2405
I416
(dp2406
g481
F0.05418592765430083
ssI417
(dp2407
g481
F0.059968608527687435
ssI418
(dp2408
g481
F0.06983901501733064
ssI241
g2369
sI242
g2379
sI243
g2387
sI244
g2395
sI245
g2401
sI247
(dp2409
g481
F0.02036369417442665
ssI248
(dp2410
g481
F0.04676302775184716
ssI249
(dp2411
g481
F0.054129738562702895
ssI250
(dp2412
g481
F0.05511599156612912
ssI251
(dp2413
g481
F0.044789425699223874
sssI247
(dp2414
I416
(dp2415
g481
F0.035117576001984424
ssI417
(dp2416
g481
F0.046787948859211295
ssI418
(dp2417
g481
F0.05272006739562922
ssI419
(dp2418
g481
F0.11523556205585046
ssI429
(dp2419
g481
F0.09866654677870976
ssI243
g2388
sI244
g2396
sI245
g2402
sI246
g2409
sI248
(dp2420
g481
F0.02378836757672222
ssI249
(dp2421
g481
F0.04039301754156809
ssI250
(dp2422
g481
F0.04220468251631943
ssI251
(dp2423
g481
F0.040318980861603376
sssI248
(dp2424
I416
(dp2425
g481
F0.05607951387113832
ssI417
(dp2426
g481
F0.0808711132012614
ssI418
(dp2427
g481
F0.08610020962873073
ssI432
(dp2428
g481
F0.07502742498382886
ssI245
g2403
sI246
g2410
sI247
g2420
sI249
(dp2429
g481
F0.015773425292949676
ssI250
(dp2430
g481
F0.02661715270850145
ssI251
(dp2431
g481
F0.060668316700953066
sssI249
(dp2432
I416
(dp2433
g481
F0.06019514338060645
ssI417
(dp2434
g481
F0.09068651700687952
ssI433
(dp2435
g481
F0.12613554481576816
ssI432
(dp2436
g481
F0.0711235961895264
ssI241
g2370
sI242
g2380
sI243
g2389
sI244
g2397
sI245
g2404
sI246
g2411
sI247
g2421
sI248
g2429
sI250
(dp2437
g481
F0.011021209147730773
ssI251
(dp2438
g481
F0.05303773013454801
ssI252
(dp2439
g481
F0.08599770164545825
ssI415
(dp2440
g481
F0.08821852498435172
sssI250
(dp2441
I416
(dp2442
g481
F0.03831072597293461
ssI417
(dp2443
g481
F0.06700878877269359
ssI438
(dp2444
g481
F0.18920401233311837
ssI432
(dp2445
g481
F0.04989808894026053
ssI433
(dp2446
g481
F0.10811668069811588
ssI434
(dp2447
g481
F0.14472192686304683
ssI431
(dp2448
g481
F0.09642701942028424
ssI240
g2358
sI241
g2371
sI242
g2381
sI243
g2390
sI246
g2412
sI247
g2422
sI248
g2430
sI249
g2437
sI251
(dp2449
g481
F0.03274384485701401
ssI252
(dp2450
g481
F0.05762077226214336
ssI253
(dp2451
g481
F0.1974770312834205
ssI414
(dp2452
g481
F0.047323559229319474
ssI415
(dp2453
g481
F0.05781715690362649
sssI251
(dp2454
I416
(dp2455
g481
F0.02156515595220666
ssI417
(dp2456
g481
F0.03091356690536507
ssI432
(dp2457
g481
F0.0689988702866934
ssI433
(dp2458
g481
F0.1672494281623942
ssI239
g2347
sI240
g2359
sI241
g2372
sI242
g2382
sI243
g2391
sI244
g2398
sI414
(dp2459
g481
F0.03680009651263514
ssI246
g2413
sI247
g2423
sI248
g2431
sI249
g2438
sI250
g2449
sI431
(dp2460
g481
F0.07936647828756511
ssI252
(dp2461
g481
F0.015111807918871654
ssI253
(dp2462
g481
F0.08591501433242175
ssI413
(dp2463
g481
F0.09364735965096935
ssI415
(dp2464
g481
F0.02920010086125625
sssI252
(dp2465
I412
(dp2466
g481
F0.14326012910671485
ssI413
(dp2467
g481
F0.07355689110195336
ssI414
(dp2468
g481
F0.04114635599197296
ssI415
(dp2469
g481
F0.043008978899121246
ssI416
(dp2470
g481
F0.041585061121888506
ssI432
(dp2471
g481
F0.089646510181535
ssI438
(dp2472
g481
F0.2815764914620792
ssI439
(dp2473
g481
F0.37132459718205985
ssI441
(dp2474
g481
F0.32653652730740396
ssI442
(dp2475
g481
F0.20695493425464392
ssI226
g2208
sI227
g2225
sI238
g2335
sI239
g2348
sI240
g2360
sI241
g2373
sI242
g2383
sI249
g2439
sI250
g2450
sI251
g2461
sI253
(dp2476
g481
F0.056263804800646654
ssI254
(dp2477
g481
F0.19802079619977983
sssI253
(dp2478
I226
g2209
sI227
g2226
sI412
(dp2479
g481
F0.059967912355492155
ssI411
(dp2480
g481
F0.2260558090347495
ssI237
g2324
sI238
g2336
sI239
g2349
sI240
g2361
sI241
g2374
sI415
(dp2481
g481
F0.08502777403025859
ssI414
(dp2482
g481
F0.10497993957907777
ssI311
(dp2483
g481
F0.12660823627483653
ssI442
(dp2484
g481
F0.3496721502448533
ssI250
g2451
sI251
g2462
sI252
g2476
sI413
(dp2485
g481
F0.053220141172744435
ssI254
(dp2486
g481
F0.05930936071566034
ssI255
(dp2487
g481
F0.21611668079101923
sssI254
(dp2488
I256
(dp2489
g481
F0.2562710591731785
ssI257
(dp2490
g481
F0.35129074852278924
ssI258
(dp2491
g481
F0.32151774055669724
ssI227
g2219
sI232
g2275
sI233
g2286
sI236
g2311
sI237
g2325
sI238
g2337
sI239
g2350
sI240
g2362
sI412
(dp2492
g481
F0.0795057395115156
ssI311
(dp2493
g481
F0.1058603526518465
ssI413
(dp2494
g481
F0.1574935548765512
ssI410
(dp2495
g481
F0.24658560998606427
ssI411
(dp2496
g481
F0.12841435228894826
ssI252
g2477
sI253
g2486
sI414
(dp2497
g481
F0.28963782394329607
ssI255
(dp2498
g481
F0.07717016324706226
sssI255
(dp2499
I256
(dp2500
g481
F0.06620801750738746
ssI257
(dp2501
g481
F0.10350399241307956
ssI258
(dp2502
g481
F0.11323637389400464
ssI259
(dp2503
g481
F0.1389428511470083
ssI232
g2276
sI233
g2287
sI234
g2295
sI235
g2302
sI236
g2312
sI237
g2326
sI238
g2338
sI239
g2351
sI307
(dp2504
g481
F0.06554699965528628
ssI310
(dp2505
g481
F0.05951499686090651
ssI311
(dp2506
g481
F0.08237186681842523
ssI413
(dp2507
g481
F0.33304102811463976
ssI410
(dp2508
g481
F0.204667075430178
ssI411
(dp2509
g481
F0.1059732669086305
ssI412
(dp2510
g481
F0.17661776352798972
ssI253
g2487
sI254
g2498
ssI256
(dp2511
I257
(dp2512
g481
F0.032008439095235236
ssI258
(dp2513
g481
F0.10507580493546377
ssI231
g2258
sI232
g2264
sI233
g2278
sI234
g2289
sI235
g2297
sI236
g2304
sI237
g2314
sI238
g2328
sI307
(dp2514
g481
F0.14831555462553994
ssI310
(dp2515
g481
F0.12171118409529487
ssI411
(dp2516
g481
F0.25287314587802684
ssI412
(dp2517
g481
F0.4742837107994813
ssI254
g2489
sI255
g2500
ssI257
(dp2518
I256
g2512
sI258
(dp2519
g481
F0.044564234732375335
ssI259
(dp2520
g481
F0.1087523616024042
ssI232
g2265
sI233
g2279
sI234
g2290
sI235
g2298
sI236
g2305
sI237
g2315
sI303
(dp2521
g481
F0.10437715180644437
ssI307
(dp2522
g481
F0.14095647399403113
ssI409
(dp2523
g481
F0.2964625225950465
ssI410
(dp2524
g481
F0.32120474191290777
ssI411
(dp2525
g481
F0.23313722462409697
ssI254
g2490
sI255
g2501
ssI258
(dp2526
I256
g2513
sI257
g2519
sI259
(dp2527
g481
F0.03285033727615093
ssI260
(dp2528
g481
F0.07817090778525135
ssI229
g2242
sI232
g2266
sI303
(dp2529
g481
F0.08214639984391638
ssI307
(dp2530
g481
F0.12352634097766212
ssI261
(dp2531
g481
F0.1914003538715462
ssI408
(dp2532
g481
F0.32702857680094816
ssI409
(dp2533
g481
F0.1388861436810854
ssI410
(dp2534
g481
F0.1542115181519724
ssI411
(dp2535
g481
F0.12777485771649308
ssI412
(dp2536
g481
F0.3571241402658327
ssI254
g2491
sI255
g2502
ssI259
(dp2537
I257
g2520
sI258
g2527
sI228
g2232
sI261
(dp2538
g481
F0.09517817614994208
ssI299
(dp2539
g481
F0.07032067548811094
ssI300
(dp2540
g481
F0.05838215143990233
ssI303
(dp2541
g481
F0.05125992889145694
ssI304
(dp2542
g481
F0.0683326232024958
ssI307
(dp2543
g481
F0.08951599866944558
ssI409
(dp2544
g481
F0.10359449362956957
ssI408
(dp2545
g481
F0.25026070520028204
ssI260
(dp2546
g481
F0.03258280354568993
ssI410
(dp2547
g481
F0.09137697318845055
ssI411
(dp2548
g481
F0.11113279291441223
ssI412
(dp2549
g481
F0.28456072504695884
ssI255
g2503
ssI260
(dp2550
I258
g2528
sI259
g2546
sI228
g2228
sI261
(dp2551
g481
F0.046895635169593226
ssI262
(dp2552
g481
F0.07685195151319232
ssI298
(dp2553
g481
F0.09281477649398659
ssI299
(dp2554
g481
F0.06933407687526189
ssI300
(dp2555
g481
F0.0745465108948032
ssI303
(dp2556
g481
F0.10514479660372093
ssI304
(dp2557
g481
F0.130486183520008
ssI407
(dp2558
g481
F0.12534202851840254
ssI408
(dp2559
g481
F0.13729081825495992
ssI409
(dp2560
g481
F0.0600709511128397
ssI410
(dp2561
g481
F0.1050764008124124
ssI411
(dp2562
g481
F0.16054534195706513
sssI261
(dp2563
I409
(dp2564
g481
F0.0732675331324089
ssI258
g2531
sI259
g2538
sI260
g2551
sI262
(dp2565
g481
F0.028031915838462547
ssI263
(dp2566
g481
F0.06665581993246848
ssI297
(dp2567
g481
F0.05809020194970215
ssI298
(dp2568
g481
F0.032981605248879095
ssI299
(dp2569
g481
F0.04376248551818266
ssI300
(dp2570
g481
F0.09902106209885958
ssI406
(dp2571
g481
F0.14760144631950214
ssI407
(dp2572
g481
F0.08964853122298873
ssI408
(dp2573
g481
F0.08748321028141293
ssI228
g2233
sI410
(dp2574
g481
F0.07326201747805186
sssI262
(dp2575
I260
g2552
sI261
g2565
sI263
(dp2576
g481
F0.032678255112344304
ssI264
(dp2577
g481
F0.06527401086350336
ssI297
(dp2578
g481
F0.06245640324257394
ssI298
(dp2579
g481
F0.04683285838759978
ssI299
(dp2580
g481
F0.07768525894980904
ssI300
(dp2581
g481
F0.13429073749014067
ssI296
(dp2582
g481
F0.11129960019742911
ssI407
(dp2583
g481
F0.04613558281353034
ssI405
(dp2584
g481
F0.05975212233441799
ssI406
(dp2585
g481
F0.0703945369685799
ssI343
(dp2586
g481
F0.33383960617407094
ssI408
(dp2587
g481
F0.08080028647693871
ssI409
(dp2588
g481
F0.09741024038717078
sssI263
(dp2589
I376
(dp2590
g481
F0.11450772100837359
ssI343
(dp2591
g481
F0.2041900118744961
ssI407
(dp2592
g481
F0.07758277253327606
ssI261
g2566
sI262
g2576
sI295
(dp2593
g481
F0.08671502326407751
ssI264
(dp2594
g481
F0.02099653530222797
ssI265
(dp2595
g481
F0.06462511851494551
ssI266
(dp2596
g481
F0.12370197394137218
ssI299
(dp2597
g481
F0.1292465987497234
ssI296
(dp2598
g481
F0.051942580887501776
ssI404
(dp2599
g481
F0.1401278000176593
ssI405
(dp2600
g481
F0.06117567699937408
ssI406
(dp2601
g481
F0.0590843542927318
ssI297
(dp2602
g481
F0.03224153095765775
ssI344
(dp2603
g481
F0.2652299080143271
ssI377
(dp2604
g481
F0.12094780714632426
ssI379
(dp2605
g481
F0.15367201016459686
ssI348
(dp2606
g481
F0.23697463680644607
ssI298
(dp2607
g481
F0.06922541624265618
ssI408
(dp2608
g481
F0.1012511111042418
sssI264
(dp2609
I263
g2594
sI343
(dp2610
g481
F0.18449631844191083
ssI407
(dp2611
g481
F0.10103671182780122
ssI262
g2577
sI295
(dp2612
g481
F0.09897769499676132
ssI296
(dp2613
g481
F0.06621336702138732
ssI265
(dp2614
g481
F0.04889199196837615
ssI266
(dp2615
g481
F0.11773662706674047
ssI267
(dp2616
g481
F0.29156661150131985
ssI402
(dp2617
g481
F0.15959183314789924
ssI403
(dp2618
g481
F0.15420651106973274
ssI404
(dp2619
g481
F0.14613198713573208
ssI405
(dp2620
g481
F0.06332967516173106
ssI406
(dp2621
g481
F0.06583094887846767
ssI297
(dp2622
g481
F0.05198878986182019
ssI344
(dp2623
g481
F0.2278968866656724
ssI298
(dp2624
g481
F0.09148245074241872
sssI265
(dp2625
I263
g2595
sI294
(dp2626
g481
F0.17053014444415074
ssI295
(dp2627
g481
F0.10547114799806111
ssI264
g2614
sI297
(dp2628
g481
F0.10260537448635466
ssI266
(dp2629
g481
F0.05261357398996779
ssI267
(dp2630
g481
F0.19993314811035826
ssI399
(dp2631
g481
F0.2888221244537034
ssI401
(dp2632
g481
F0.303418400076557
ssI296
(dp2633
g481
F0.10246503835103235
ssI402
(dp2634
g481
F0.1379595555903659
ssI403
(dp2635
g481
F0.1515198665069543
ssI404
(dp2636
g481
F0.15728677323325235
ssI405
(dp2637
g481
F0.1003688800508335
ssI406
(dp2638
g481
F0.08802167655056516
ssI343
(dp2639
g481
F0.13557946049111197
ssI344
(dp2640
g481
F0.17360027093635091
ssI346
(dp2641
g481
F0.19882841784820607
ssI381
(dp2642
g481
F0.21211350832304884
sssI266
(dp2643
I263
g2596
sI264
g2615
sI265
g2629
sI267
(dp2644
g481
F0.13588687914458777
ssI268
(dp2645
g481
F0.2112193295949345
ssI269
(dp2646
g481
F0.2044592279207549
ssI398
(dp2647
g481
F0.2968902607895508
ssI399
(dp2648
g481
F0.22720204559485915
ssI400
(dp2649
g481
F0.32945003598522044
ssI401
(dp2650
g481
F0.23050656767788869
ssI402
(dp2651
g481
F0.10170861912380742
ssI403
(dp2652
g481
F0.11644684011888036
ssI404
(dp2653
g481
F0.14212134520128977
ssI405
(dp2654
g481
F0.13421752415121024
ssI406
(dp2655
g481
F0.11845494607961707
ssI295
(dp2656
g481
F0.12932711423063173
ssI343
(dp2657
g481
F0.13482848123513858
ssI344
(dp2658
g481
F0.15907352437742653
ssI345
(dp2659
g481
F0.24773578168272728
ssI346
(dp2660
g481
F0.19100056824945433
ssI347
(dp2661
g481
F0.2587995860514354
ssI381
(dp2662
g481
F0.20541910997579554
sssI267
(dp2663
I400
(dp2664
g481
F0.35140763067623715
ssI264
g2616
sI265
g2630
sI266
g2644
sI268
(dp2665
g481
F0.098977234354785
ssI269
(dp2666
g481
F0.19103678772679247
ssI270
(dp2667
g481
F0.331046995095468
ssI399
(dp2668
g481
F0.31342278176196403
ssI176
g1763
sI401
(dp2669
g481
F0.2355929952795232
ssI402
(dp2670
g481
F0.17883279087941978
ssI403
(dp2671
g481
F0.2125998971302023
ssI404
(dp2672
g481
F0.2182344229358723
ssI405
(dp2673
g481
F0.26216512729702557
ssI406
(dp2674
g481
F0.2312929426557202
ssI343
(dp2675
g481
F0.35238735214882083
ssI344
(dp2676
g481
F0.37972666996105736
ssI345
(dp2677
g481
F0.41736549066528794
ssI346
(dp2678
g481
F0.3922694218877803
sssI268
(dp2679
I266
g2645
sI267
g2665
sI269
(dp2680
g481
F0.11664802527694314
ssI174
g1747
sI175
g1757
sI176
g1764
sI401
(dp2681
g481
F0.24576448690436184
ssI402
(dp2682
g481
F0.23766148715618857
ssI270
(dp2683
g481
F0.23682159746446127
ssI343
(dp2684
g481
F0.35213124889364233
ssI344
(dp2685
g481
F0.3978557085285851
ssI345
(dp2686
g481
F0.40658534899120313
ssI346
(dp2687
g481
F0.36647723207061744
ssI399
(dp2688
g481
F0.3159086727989117
sssI269
(dp2689
I266
g2646
sI267
g2666
sI268
g2680
sI270
(dp2690
g481
F0.08155333572670614
ssI175
g1758
sI272
(dp2691
g481
F0.29888879507125693
ssI174
g1751
sI344
(dp2692
g481
F0.34212597771036607
ssI345
(dp2693
g481
F0.39895868836356513
ssI271
(dp2694
g481
F0.14640416357508085
sssI270
(dp2695
I267
g2667
sI268
g2683
sI269
g2690
sI271
(dp2696
g481
F0.0396908515746158
ssI272
(dp2697
g481
F0.11161823680327493
ssI273
(dp2698
g481
F0.31218251627795995
sssI271
(dp2699
I272
(dp2700
g481
F0.06410825228664042
ssI273
(dp2701
g481
F0.23553309838062575
ssI269
g2694
sI270
g2696
ssI272
(dp2702
I273
(dp2703
g481
F0.08180829466980197
ssI274
(dp2704
g481
F0.32098854402271093
ssI269
g2691
sI270
g2697
sI271
g2700
ssI273
(dp2705
I270
g2698
sI271
g2701
sI272
g2703
sI274
(dp2706
g481
F0.11791252022876222
ssI275
(dp2707
g481
F0.2540948959432913
ssI276
(dp2708
g481
F0.3943970867753088
sssI274
(dp2709
I272
g2704
sI273
g2706
sI275
(dp2710
g481
F0.054527408770585775
ssI276
(dp2711
g481
F0.11158171704311506
ssI277
(dp2712
g481
F0.2106283879134098
sssI275
(dp2713
I273
g2707
sI274
g2710
sI276
(dp2714
g481
F0.048612936523242764
ssI277
(dp2715
g481
F0.0957896770212785
ssI278
(dp2716
g481
F0.17416064429966976
sssI276
(dp2717
I273
g2708
sI274
g2711
sI275
g2714
sI277
(dp2718
g481
F0.039055183297890386
ssI278
(dp2719
g481
F0.11907628650813495
ssI279
(dp2720
g481
F0.19481115632138396
ssI280
(dp2721
g481
F0.22647023449957304
sssI277
(dp2722
I274
g2712
sI275
g2715
sI276
g2718
sI278
(dp2723
g481
F0.03364751195448483
ssI279
(dp2724
g481
F0.10067231874378295
ssI280
(dp2725
g481
F0.14759426152457308
ssI281
(dp2726
g481
F0.26118421087308363
sssI278
(dp2727
I275
g2716
sI276
g2719
sI277
g2723
sI279
(dp2728
g481
F0.03413943127409959
ssI280
(dp2729
g481
F0.08232727416759089
ssI281
(dp2730
g481
F0.16800034414739073
sssI279
(dp2731
I276
g2720
sI277
g2724
sI278
g2728
sI280
(dp2732
g481
F0.026552881697826863
ssI281
(dp2733
g481
F0.09907996276822842
ssI282
(dp2734
g481
F0.2558492581365845
sssI280
(dp2735
I276
g2721
sI277
g2725
sI278
g2729
sI279
g2732
sI281
(dp2736
g481
F0.05481957907137194
ssI282
(dp2737
g481
F0.1673370787881835
ssI283
(dp2738
g481
F0.3044637166736016
sssI281
(dp2739
I277
g2726
sI278
g2730
sI279
g2733
sI280
g2736
sI282
(dp2740
g481
F0.06040906622592881
ssI283
(dp2741
g481
F0.1828721930235492
sssI282
(dp2742
I280
g2737
sI281
g2740
sI283
(dp2743
g481
F0.0750189441961538
ssI284
(dp2744
g481
F0.28143274161436843
ssI279
g2734
ssI283
(dp2745
I280
g2738
sI281
g2741
sI282
g2743
sI284
(dp2746
g481
F0.09240819137893412
ssI285
(dp2747
g481
F0.20788199428458395
ssI286
(dp2748
g481
F0.30888101888213754
sssI284
(dp2749
I282
g2744
sI283
g2746
sI285
(dp2750
g481
F0.05772344315132999
ssI286
(dp2751
g481
F0.11590148637056143
ssI287
(dp2752
g481
F0.1786618132393364
sssI285
(dp2753
I288
(dp2754
g481
F0.20185806235339654
ssI283
g2747
sI284
g2750
sI286
(dp2755
g481
F0.04783457133223594
ssI287
(dp2756
g481
F0.12340063801198561
sssI286
(dp2757
I288
(dp2758
g481
F0.14313845487882035
ssI289
(dp2759
g481
F0.22919491668613087
ssI283
g2748
sI284
g2751
sI285
g2755
sI287
(dp2760
g481
F0.06664938493566828
sssI287
(dp2761
I288
(dp2762
g481
F0.05799229381070353
ssI289
(dp2763
g481
F0.15401792922687946
ssI284
g2752
sI285
g2756
sI286
g2760
ssI288
(dp2764
I289
(dp2765
g481
F0.06921634575377913
ssI290
(dp2766
g481
F0.26515569924201576
ssI285
g2754
sI286
g2758
sI287
g2762
ssI289
(dp2767
I288
g2765
sI290
(dp2768
g481
F0.09445063311027446
ssI291
(dp2769
g481
F0.3182493229808831
ssI286
g2759
sI287
g2763
ssI290
(dp2770
I288
g2766
sI289
g2768
sI291
(dp2771
g481
F0.09441100108543146
ssI292
(dp2772
g481
F0.2982534428584493
ssI293
(dp2773
g481
F0.45142041000534255
ssI294
(dp2774
g481
F0.4217973750263085
sssI291
(dp2775
I289
g2769
sI290
g2771
sI292
(dp2776
g481
F0.12031414370019378
ssI293
(dp2777
g481
F0.1857648780905126
ssI294
(dp2778
g481
F0.18899056918761362
ssI295
(dp2779
g481
F0.2392491912513965
sssI292
(dp2780
I290
g2772
sI291
g2776
sI293
(dp2781
g481
F0.05210425884764763
ssI294
(dp2782
g481
F0.0900109504292526
ssI295
(dp2783
g481
F0.134153722483852
ssI398
(dp2784
g481
F0.10882639231348705
ssI399
(dp2785
g481
F0.10450101528311438
ssI400
(dp2786
g481
F0.1606865113712698
ssI380
(dp2787
g481
F0.12247150622833751
ssI381
(dp2788
g481
F0.08398559412748201
sssI293
(dp2789
I290
g2773
sI291
g2777
sI292
g2781
sI294
(dp2790
g481
F0.033339830871386915
ssI295
(dp2791
g481
F0.0735507964664419
ssI380
(dp2792
g481
F0.044587543041476975
ssI398
(dp2793
g481
F0.08110424351450281
ssI399
(dp2794
g481
F0.09901520512696865
ssI379
(dp2795
g481
F0.09177738975766861
ssI348
(dp2796
g481
F0.03761713735534592
ssI381
(dp2797
g481
F0.022308277942453592
ssI382
(dp2798
g481
F0.059605905184100576
ssI383
(dp2799
g481
F0.08994619047263935
sssI294
(dp2800
I290
g2774
sI291
g2778
sI292
g2782
sI293
g2790
sI295
(dp2801
g481
F0.022347347183912174
ssI296
(dp2802
g481
F0.07900525099731898
ssI265
g2626
sI380
(dp2803
g481
F0.02457346106359389
ssI378
(dp2804
g481
F0.07179900668391072
ssI379
(dp2805
g481
F0.03515517332557799
ssI348
(dp2806
g481
F0.04027951342133666
ssI381
(dp2807
g481
F0.03846501160028337
ssI382
(dp2808
g481
F0.09087135793651344
sssI295
(dp2809
I291
g2779
sI292
g2783
sI293
g2791
sI294
g2801
sI263
g2593
sI264
g2612
sI265
g2627
sI266
g2656
sI381
(dp2810
g481
F0.0671710088720686
ssI296
(dp2811
g481
F0.027609837915093062
ssI380
(dp2812
g481
F0.042618723241254784
ssI297
(dp2813
g481
F0.07090512973231332
ssI377
(dp2814
g481
F0.09408391671544525
ssI378
(dp2815
g481
F0.04875367487164303
ssI379
(dp2816
g481
F0.03132904662669921
ssI348
(dp2817
g481
F0.06620152170743158
ssI349
(dp2818
g481
F0.08507884722441938
ssI350
(dp2819
g481
F0.07404926788671999
sssI296
(dp2820
I262
g2582
sI294
g2802
sI295
g2811
sI264
g2613
sI265
g2633
sI298
(dp2821
g481
F0.07807191603164759
ssI263
g2598
sI380
(dp2822
g481
F0.09447932636633276
ssI297
(dp2823
g481
F0.017590432050193575
ssI376
(dp2824
g481
F0.07613793704331986
ssI377
(dp2825
g481
F0.04076315901612344
ssI378
(dp2826
g481
F0.03664619118315372
ssI379
(dp2827
g481
F0.05030511114732713
ssI348
(dp2828
g481
F0.141381641675337
ssI381
(dp2829
g481
F0.15362877869419259
ssI350
(dp2830
g481
F0.08979575225992807
ssI351
(dp2831
g481
F0.11294965253474312
sssI297
(dp2832
I299
(dp2833
g481
F0.07747643223953429
ssI407
(dp2834
g481
F0.15259178369690482
ssI261
g2567
sI262
g2578
sI295
g2813
sI264
g2622
sI265
g2628
sI298
(dp2835
g481
F0.03124577698065718
ssI263
g2602
sI296
g2823
sI405
(dp2836
g481
F0.14255999982718726
ssI406
(dp2837
g481
F0.15067976288867754
ssI375
(dp2838
g481
F0.09291550018726685
ssI376
(dp2839
g481
F0.0428034737943213
ssI377
(dp2840
g481
F0.038248919300717464
ssI378
(dp2841
g481
F0.059775344420356515
ssI379
(dp2842
g481
F0.09424115798225628
ssI348
(dp2843
g481
F0.21826400560997694
ssI350
(dp2844
g481
F0.13232660621568434
ssI351
(dp2845
g481
F0.14463609837875202
sssI298
(dp2846
I260
g2553
sI261
g2568
sI262
g2579
sI263
g2607
sI264
g2624
sI297
g2835
sI299
(dp2847
g481
F0.016862323843722497
ssI300
(dp2848
g481
F0.06986439006225367
ssI301
(dp2849
g481
F0.08364518172092011
ssI296
g2821
sI407
(dp2850
g481
F0.14738136631891227
ssI374
(dp2851
g481
F0.05471405803566187
ssI375
(dp2852
g481
F0.039337969516370516
ssI376
(dp2853
g481
F0.02136431476922372
ssI377
(dp2854
g481
F0.0662897917746633
ssI378
(dp2855
g481
F0.12530662560076603
sssI299
(dp2856
I259
g2539
sI260
g2554
sI261
g2569
sI262
g2580
sI263
g2597
sI297
g2833
sI298
g2847
sI300
(dp2857
g481
F0.028430194197255877
ssI301
(dp2858
g481
F0.04066072480673284
ssI302
(dp2859
g481
F0.07723126788303979
ssI303
(dp2860
g481
F0.08289780883579662
ssI304
(dp2861
g481
F0.05490074214518992
ssI355
(dp2862
g481
F0.13430532626330283
ssI373
(dp2863
g481
F0.0885752813158478
ssI374
(dp2864
g481
F0.030667078472968623
ssI375
(dp2865
g481
F0.030688098308687704
ssI376
(dp2866
g481
F0.03627868267679005
ssI377
(dp2867
g481
F0.10187927339924975
sssI300
(dp2868
I259
g2540
sI260
g2555
sI261
g2570
sI262
g2581
sI298
g2848
sI299
g2857
sI301
(dp2869
g481
F0.016517707921602027
ssI302
(dp2870
g481
F0.02970623089235108
ssI303
(dp2871
g481
F0.03182394912578479
ssI304
(dp2872
g481
F0.03873257490400229
ssI305
(dp2873
g481
F0.06224369126846995
ssI372
(dp2874
g481
F0.20600361134918901
ssI373
(dp2875
g481
F0.05054883975998455
ssI374
(dp2876
g481
F0.023619790573741733
ssI375
(dp2877
g481
F0.06694543765535052
ssI376
(dp2878
g481
F0.0964534720356273
sssI301
(dp2879
I376
(dp2880
g481
F0.08570465693481852
ssI355
(dp2881
g481
F0.1428951508278799
ssI298
g2849
sI299
g2858
sI300
g2869
sI302
(dp2882
g481
F0.020638322375565142
ssI303
(dp2883
g481
F0.032440751535512104
ssI304
(dp2884
g481
F0.017823888183645355
ssI305
(dp2885
g481
F0.028518319999747556
ssI306
(dp2886
g481
F0.0547240052474459
ssI307
(dp2887
g481
F0.06145160559050165
ssI372
(dp2888
g481
F0.21322977530046894
ssI373
(dp2889
g481
F0.055862418218029536
ssI374
(dp2890
g481
F0.029321622362149687
ssI375
(dp2891
g481
F0.05291209832626923
ssI371
(dp2892
g481
F0.4033994982180341
sssI302
(dp2893
I299
g2859
sI300
g2870
sI301
g2882
sI303
(dp2894
g481
F0.00857929442009027
ssI304
(dp2895
g481
F0.028487839981467
ssI305
(dp2896
g481
F0.028883416485700943
ssI306
(dp2897
g481
F0.02430703296312529
ssI307
(dp2898
g481
F0.0462927661091774
ssI372
(dp2899
g481
F0.24134066995742876
ssI373
(dp2900
g481
F0.07494377672202245
ssI374
(dp2901
g481
F0.052581910881419364
ssI375
(dp2902
g481
F0.09363773763926256
ssI371
(dp2903
g481
F0.45772928118209316
sssI303
(dp2904
I257
g2521
sI258
g2529
sI259
g2541
sI260
g2556
sI299
g2860
sI300
g2871
sI301
g2883
sI302
g2894
sI304
(dp2905
g481
F0.028175304750110826
ssI305
(dp2906
g481
F0.03625235335832603
ssI306
(dp2907
g481
F0.02165675974588591
ssI307
(dp2908
g481
F0.037957649497930984
ssI308
(dp2909
g481
F0.0960376627453946
ssI309
(dp2910
g481
F0.07400863906943886
ssI374
(dp2911
g481
F0.05953928888135855
sssI304
(dp2912
I259
g2542
sI260
g2557
sI374
(dp2913
g481
F0.046001952747602784
ssI299
g2861
sI300
g2872
sI301
g2884
sI302
g2895
sI303
g2905
sI305
(dp2914
g481
F0.009944970025786246
ssI306
(dp2915
g481
F0.03217609725762305
ssI307
(dp2916
g481
F0.02331408075404835
ssI308
(dp2917
g481
F0.03668495899614166
ssI309
(dp2918
g481
F0.04720239233890198
ssI310
(dp2919
g481
F0.07662141909620515
ssI375
(dp2920
g481
F0.05654803121718323
ssI355
(dp2921
g481
F0.11253226486307624
sssI305
(dp2922
I355
(dp2923
g481
F0.12407499278908601
ssI358
(dp2924
g481
F0.08073256634431836
ssI300
g2873
sI301
g2885
sI302
g2896
sI303
g2906
sI304
g2914
sI306
(dp2925
g481
F0.018710219249241093
ssI307
(dp2926
g481
F0.018468966636335342
ssI308
(dp2927
g481
F0.024557456271441125
ssI309
(dp2928
g481
F0.023998793013227205
ssI310
(dp2929
g481
F0.051097258241792336
sssI306
(dp2930
I301
g2886
sI302
g2897
sI303
g2907
sI304
g2915
sI305
g2925
sI307
(dp2931
g481
F0.013029090288631862
ssI308
(dp2932
g481
F0.05055360459440312
ssI309
(dp2933
g481
F0.02415302323529291
ssI310
(dp2934
g481
F0.03103240710020981
ssI311
(dp2935
g481
F0.08573173658806164
ssI312
(dp2936
g481
F0.09210999456539093
sssI307
(dp2937
I256
g2514
sI257
g2522
sI258
g2530
sI259
g2543
sI237
g2318
sI302
g2898
sI301
g2887
sI304
g2916
sI305
g2926
sI306
g2931
sI308
(dp2938
g481
F0.02296528299257777
ssI309
(dp2939
g481
F0.016421847503991664
ssI310
(dp2940
g481
F0.02438239767431288
ssI311
(dp2941
g481
F0.051253027555094685
ssI312
(dp2942
g481
F0.06110768883410421
ssI303
g2908
sI255
g2504
ssI308
(dp2943
I355
(dp2944
g481
F0.0928319772895009
ssI356
(dp2945
g481
F0.11178892438706074
ssI358
(dp2946
g481
F0.04070480127133572
ssI326
(dp2947
g481
F0.08753857271360604
ssI360
(dp2948
g481
F0.07641397248272208
ssI303
g2909
sI304
g2917
sI305
g2927
sI306
g2932
sI307
g2938
sI309
(dp2949
g481
F0.01577851169641193
ssI310
(dp2950
g481
F0.040071466329099165
ssI311
(dp2951
g481
F0.023241175747257092
ssI312
(dp2952
g481
F0.025016626752458214
ssI313
(dp2953
g481
F0.05573183052849417
sssI309
(dp2954
I360
(dp2955
g481
F0.08598743843370037
ssI303
g2910
sI304
g2918
sI305
g2928
sI306
g2933
sI307
g2939
sI308
g2949
sI310
(dp2956
g481
F0.010877908785890166
ssI311
(dp2957
g481
F0.02679211320509606
ssI312
(dp2958
g481
F0.027160744589341246
ssI313
(dp2959
g481
F0.028585906774721895
ssI314
(dp2960
g481
F0.06205670958236267
ssI315
(dp2961
g481
F0.0981340230810048
sssI310
(dp2962
I256
g2515
sI236
g2308
sI237
g2319
sI304
g2919
sI305
g2929
sI306
g2934
sI307
g2940
sI308
g2950
sI309
g2956
sI311
(dp2963
g481
F0.03025801719161217
ssI312
(dp2964
g481
F0.03805881650964652
ssI313
(dp2965
g481
F0.02005095081046667
ssI314
(dp2966
g481
F0.04817983200450019
ssI315
(dp2967
g481
F0.10255260578907706
ssI255
g2505
ssI311
(dp2968
I236
g2309
sI237
g2320
sI238
g2329
sI239
g2345
sI306
g2935
sI307
g2941
sI308
g2951
sI309
g2957
sI310
g2963
sI312
(dp2969
g481
F0.005893636123517256
ssI313
(dp2970
g481
F0.02413507122614203
ssI314
(dp2971
g481
F0.026823949757219745
ssI315
(dp2972
g481
F0.03500164438669198
ssI316
(dp2973
g481
F0.03938545965628564
ssI253
g2483
sI254
g2493
sI255
g2506
ssI312
(dp2974
I323
(dp2975
g481
F0.03654856725610087
ssI324
(dp2976
g481
F0.040779487377864194
ssI325
(dp2977
g481
F0.06859668127229504
ssI360
(dp2978
g481
F0.07692629700018033
ssI361
(dp2979
g481
F0.20910072750590866
ssI306
g2936
sI307
g2942
sI308
g2952
sI309
g2958
sI310
g2964
sI311
g2969
sI313
(dp2980
g481
F0.020025045303538238
ssI314
(dp2981
g481
F0.026327598516191347
ssI315
(dp2982
g481
F0.027836819785216703
ssI316
(dp2983
g481
F0.027547341154794482
ssI317
(dp2984
g481
F0.062429946590543704
ssI319
(dp2985
g481
F0.09756655990971776
sssI313
(dp2986
I320
(dp2987
g481
F0.08634430927470535
ssI237
g2321
sI308
g2953
sI309
g2959
sI310
g2965
sI311
g2970
sI312
g2980
sI314
(dp2988
g481
F0.013771513692892078
ssI315
(dp2989
g481
F0.0514976776397134
ssI316
(dp2990
g481
F0.029054785445237975
ssI317
(dp2991
g481
F0.05179750109634426
ssI318
(dp2992
g481
F0.13717458552709788
ssI319
(dp2993
g481
F0.12757900582107445
sssI314
(dp2994
I236
g2310
sI237
g2322
sI238
g2333
sI239
g2346
sI309
g2960
sI310
g2966
sI311
g2971
sI312
g2981
sI313
g2988
sI315
(dp2995
g481
F0.024826028605828585
ssI316
(dp2996
g481
F0.017154061362781643
ssI317
(dp2997
g481
F0.02612769530979597
ssI318
(dp2998
g481
F0.09089309465530566
ssI319
(dp2999
g481
F0.09701544363240912
sssI315
(dp3000
I320
(dp3001
g481
F0.05403001541860559
ssI322
(dp3002
g481
F0.037778124919388846
ssI324
(dp3003
g481
F0.04988010733081014
ssI238
g2334
sI239
g2340
sI309
g2961
sI310
g2967
sI311
g2972
sI312
g2982
sI313
g2989
sI314
g2995
sI316
(dp3004
g481
F0.012876384944707789
ssI317
(dp3005
g481
F0.032732451024544675
ssI318
(dp3006
g481
F0.05145142860143571
ssI319
(dp3007
g481
F0.04985911875313793
sssI316
(dp3008
I320
(dp3009
g481
F0.04691081462495653
ssI321
(dp3010
g481
F0.061759564361960034
ssI322
(dp3011
g481
F0.05592841182348112
ssI323
(dp3012
g481
F0.0683302618664506
ssI324
(dp3013
g481
F0.07651653221018069
ssI311
g2973
sI312
g2983
sI313
g2990
sI314
g2996
sI315
g3004
sI317
(dp3014
g481
F0.019824573967212433
ssI318
(dp3015
g481
F0.06626680004713045
ssI319
(dp3016
g481
F0.059693215320198514
sssI317
(dp3017
I320
(dp3018
g481
F0.07046750851549684
ssI312
g2984
sI313
g2991
sI314
g2997
sI315
g3005
sI316
g3014
sI318
(dp3019
g481
F0.050597492294813154
ssI319
(dp3020
g481
F0.07928053062125268
sssI318
(dp3021
I320
(dp3022
g481
F0.07785836954107578
ssI321
(dp3023
g481
F0.07592673229631906
ssI322
(dp3024
g481
F0.08095435393901629
ssI313
g2992
sI314
g2998
sI315
g3006
sI316
g3015
sI317
g3019
sI319
(dp3025
g481
F0.02877059774618622
sssI319
(dp3026
I320
(dp3027
g481
F0.04230540959805564
ssI321
(dp3028
g481
F0.05706119287196469
ssI322
(dp3029
g481
F0.057951743698528284
ssI323
(dp3030
g481
F0.08380422518950734
ssI324
(dp3031
g481
F0.09169709763017057
ssI427
(dp3032
g481
F0.10544074672812022
ssI312
g2985
sI313
g2993
sI314
g2999
sI315
g3007
sI316
g3016
sI317
g3020
sI318
g3025
ssI320
(dp3033
I321
(dp3034
g481
F0.05317714398188761
ssI322
(dp3035
g481
F0.061880542412580536
ssI323
(dp3036
g481
F0.08846099343941062
ssI313
g2987
sI315
g3001
sI316
g3009
sI317
g3018
sI318
g3022
sI319
g3027
ssI321
(dp3037
I320
g3034
sI322
(dp3038
g481
F0.022692210100054906
ssI323
(dp3039
g481
F0.04792798819473536
ssI324
(dp3040
g481
F0.062144107117845855
ssI361
(dp3041
g481
F0.26875997437108773
ssI362
(dp3042
g481
F0.4761476290491087
ssI425
(dp3043
g481
F0.07951019257683636
ssI316
g3010
sI426
(dp3044
g481
F0.0904521210120463
ssI318
g3023
sI319
g3028
ssI322
(dp3045
I320
g3035
sI321
g3038
sI323
(dp3046
g481
F0.01096299466543362
ssI324
(dp3047
g481
F0.018063285849341602
ssI325
(dp3048
g481
F0.042492589946183004
ssI360
(dp3049
g481
F0.11465570676805557
ssI361
(dp3050
g481
F0.22907806393751295
ssI362
(dp3051
g481
F0.44558394431331644
ssI427
(dp3052
g481
F0.04088895016250494
ssI424
(dp3053
g481
F0.12814601151759986
ssI425
(dp3054
g481
F0.030262010521767843
ssI315
g3002
sI316
g3011
sI426
(dp3055
g481
F0.03261230018613865
ssI318
g3024
sI319
g3029
ssI323
(dp3056
I320
g3036
sI321
g3039
sI322
g3046
sI324
(dp3057
g481
F0.004760911293128657
ssI325
(dp3058
g481
F0.019574846672010142
ssI359
(dp3059
g481
F0.0582939447723815
ssI360
(dp3060
g481
F0.09035223228904447
ssI361
(dp3061
g481
F0.2135923508391661
ssI362
(dp3062
g481
F0.4353192362583993
ssI427
(dp3063
g481
F0.033857864480692966
ssI428
(dp3064
g481
F0.055277742507824384
ssI424
(dp3065
g481
F0.12758449077737985
ssI425
(dp3066
g481
F0.02698541341552695
ssI312
g2975
sI316
g3012
sI426
(dp3067
g481
F0.021930220181036093
ssI319
g3030
ssI324
(dp3068
I321
g3040
sI322
g3047
sI323
g3057
sI325
(dp3069
g481
F0.008980964724527618
ssI326
(dp3070
g481
F0.02415888518562975
ssI359
(dp3071
g481
F0.052406085788426586
ssI360
(dp3072
g481
F0.0929173316210545
ssI361
(dp3073
g481
F0.2175323322993969
ssI362
(dp3074
g481
F0.43829505758308135
ssI427
(dp3075
g481
F0.02336417170941079
ssI428
(dp3076
g481
F0.037974860788438924
ssI429
(dp3077
g481
F0.052360171571187934
ssI425
(dp3078
g481
F0.02784552259949239
ssI312
g2976
sI358
(dp3079
g481
F0.030642494430358814
ssI315
g3003
sI316
g3013
sI426
(dp3080
g481
F0.016795888460261334
ssI319
g3031
ssI325
(dp3081
I322
g3048
sI323
g3058
sI324
g3069
sI357
(dp3082
g481
F0.030667447238208616
ssI326
(dp3083
g481
F0.006561599937482425
ssI327
(dp3084
g481
F0.030553751065234523
ssI360
(dp3085
g481
F0.103813938545892
ssI361
(dp3086
g481
F0.23158037572489767
ssI426
(dp3087
g481
F0.016614183561123392
ssI359
(dp3088
g481
F0.04492551224499102
ssI428
(dp3089
g481
F0.021975611249623057
ssI429
(dp3090
g481
F0.03157545223383955
ssI430
(dp3091
g481
F0.06990696022360676
ssI312
g2977
sI356
(dp3092
g481
F0.031860869010562023
ssI358
(dp3093
g481
F0.021347265222509862
ssI427
(dp3094
g481
F0.02049868696006116
sssI326
(dp3095
I417
(dp3096
g481
F0.09418928724307875
ssI355
(dp3097
g481
F0.043174197548643885
ssI324
g3070
sI325
g3083
sI358
(dp3098
g481
F0.023546558152617702
ssI327
(dp3099
g481
F0.0143490398189698
ssI328
(dp3100
g481
F0.052943017747306795
ssI359
(dp3101
g481
F0.05141440581108025
ssI428
(dp3102
g481
F0.02082155118349221
ssI429
(dp3103
g481
F0.02474592589590375
ssI430
(dp3104
g481
F0.04982948488459367
ssI431
(dp3105
g481
F0.08976647584541954
ssI360
(dp3106
g481
F0.12268906875340742
ssI308
g2947
sI356
(dp3107
g481
F0.018167922751194252
ssI415
(dp3108
g481
F0.08844810024248627
ssI427
(dp3109
g481
F0.028806116792174142
ssI357
(dp3110
g481
F0.019818615773909292
sssI327
(dp3111
I352
(dp3112
g481
F0.05312742292736483
ssI353
(dp3113
g481
F0.03196160569612042
ssI354
(dp3114
g481
F0.06124956313580213
ssI355
(dp3115
g481
F0.0512072917205616
ssI356
(dp3116
g481
F0.017644726365006743
ssI325
g3084
sI326
g3099
sI359
(dp3117
g481
F0.07541266992131332
ssI328
(dp3118
g481
F0.01561261139992967
ssI329
(dp3119
g481
F0.0946644766219281
ssI330
(dp3120
g481
F0.17211925161145403
ssI428
(dp3121
g481
F0.021243391050692728
ssI429
(dp3122
g481
F0.019622805522960522
ssI430
(dp3123
g481
F0.02080724948738688
ssI431
(dp3124
g481
F0.04484839633990337
ssI358
(dp3125
g481
F0.05724231966285402
ssI357
(dp3126
g481
F0.026550861818727647
sssI328
(dp3127
I352
(dp3128
g481
F0.03556791076429561
ssI353
(dp3129
g481
F0.030543058144292222
ssI354
(dp3130
g481
F0.08386547728145557
ssI355
(dp3131
g481
F0.07812740434281708
ssI356
(dp3132
g481
F0.03899847451393556
ssI357
(dp3133
g481
F0.05401472751289581
ssI326
g3100
sI327
g3118
sI329
(dp3134
g481
F0.04993010577698413
ssI330
(dp3135
g481
F0.13027221421648677
ssI331
(dp3136
g481
F0.16561893564787536
ssI429
(dp3137
g481
F0.04154821540939094
ssI430
(dp3138
g481
F0.01858828012306925
ssI431
(dp3139
g481
F0.02457486607666219
ssI337
(dp3140
g481
F0.08643664995939103
ssI338
(dp3141
g481
F0.08205827186650708
sssI329
(dp3142
I352
(dp3143
g481
F0.09662461045147593
ssI353
(dp3144
g481
F0.105217170138863
ssI356
(dp3145
g481
F0.13296200682970788
ssI327
g3119
sI328
g3134
sI330
(dp3146
g481
F0.06688240918848118
ssI331
(dp3147
g481
F0.07453379585653462
ssI332
(dp3148
g481
F0.15234373952530456
ssI429
(dp3149
g481
F0.11571584206852531
ssI430
(dp3150
g481
F0.07296524317144966
ssI431
(dp3151
g481
F0.06345954411651773
ssI336
(dp3152
g481
F0.19733957517176778
ssI337
(dp3153
g481
F0.08943126005477736
ssI338
(dp3154
g481
F0.09140806015332295
ssI432
(dp3155
g481
F0.10731277677543766
sssI330
(dp3156
I327
g3120
sI328
g3135
sI329
g3146
sI331
(dp3157
g481
F0.06305595775479836
ssI332
(dp3158
g481
F0.17286908758677555
ssI333
(dp3159
g481
F0.20831927221227534
ssI336
(dp3160
g481
F0.263464068086463
ssI337
(dp3161
g481
F0.14634751441432373
sssI331
(dp3162
I328
g3136
sI329
g3147
sI330
g3157
sI332
(dp3163
g481
F0.08186968338409803
ssI333
(dp3164
g481
F0.1152967633571497
ssI334
(dp3165
g481
F0.15617044468055682
ssI336
(dp3166
g481
F0.20126183695933358
ssI337
(dp3167
g481
F0.11437459264262573
sssI332
(dp3168
I329
g3148
sI330
g3158
sI331
g3163
sI333
(dp3169
g481
F0.036645140083154386
ssI334
(dp3170
g481
F0.09541164993904601
ssI335
(dp3171
g481
F0.16873432532056765
ssI336
(dp3172
g481
F0.13124559740423758
ssI337
(dp3173
g481
F0.10577203131344981
sssI333
(dp3174
I330
g3159
sI331
g3164
sI332
g3169
sI334
(dp3175
g481
F0.03085258455967377
ssI335
(dp3176
g481
F0.07222670374166199
ssI336
(dp3177
g481
F0.08968725777403432
ssI337
(dp3178
g481
F0.10588612831630098
ssI338
(dp3179
g481
F0.11829465632047775
sssI334
(dp3180
I331
g3165
sI332
g3170
sI333
g3175
sI335
(dp3181
g481
F0.057830482146243194
ssI336
(dp3182
g481
F0.1205073002509511
ssI337
(dp3183
g481
F0.10596007966827274
ssI338
(dp3184
g481
F0.10592051899058721
ssI349
(dp3185
g481
F0.1584035113464527
sssI335
(dp3186
I224
g2161
sI332
g3171
sI333
g3176
sI334
g3181
sI336
(dp3187
g481
F0.04959344770714138
ssI337
(dp3188
g481
F0.13824963812632127
ssI338
(dp3189
g481
F0.1394228702994464
ssI339
(dp3190
g481
F0.18063649963939507
ssI340
(dp3191
g481
F0.17553563711527925
ssI349
(dp3192
g481
F0.19540760508194707
sssI336
(dp3193
I224
g2162
sI225
g2182
sI433
(dp3194
g481
F0.21593817309490682
ssI329
g3152
sI330
g3160
sI331
g3166
sI332
g3172
sI333
g3177
sI334
g3182
sI335
g3187
sI432
(dp3195
g481
F0.17164203487869054
ssI337
(dp3196
g481
F0.07158481055108971
ssI338
(dp3197
g481
F0.08799329816013479
ssI339
(dp3198
g481
F0.12488702083905284
ssI340
(dp3199
g481
F0.13396711234038808
ssI434
(dp3200
g481
F0.23369486263814437
sssI337
(dp3201
I224
g2163
sI225
g2183
sI432
(dp3202
g481
F0.09050588628410434
ssI353
(dp3203
g481
F0.12539452713677865
ssI328
g3140
sI329
g3153
sI330
g3161
sI331
g3167
sI332
g3173
sI333
g3178
sI334
g3183
sI335
g3188
sI336
g3196
sI352
(dp3204
g481
F0.09519699102952299
ssI338
(dp3205
g481
F0.010457165509949061
ssI339
(dp3206
g481
F0.036579603088765074
ssI340
(dp3207
g481
F0.06461030360075205
ssI431
(dp3208
g481
F0.06944166317232134
ssI349
(dp3209
g481
F0.06214670759694924
ssI350
(dp3210
g481
F0.06870323060583848
ssI351
(dp3211
g481
F0.07864950612016945
sssI338
(dp3212
I224
g2164
sI225
g2184
sI353
(dp3213
g481
F0.1055107571392997
ssI328
g3141
sI329
g3154
sI333
g3179
sI334
g3184
sI335
g3189
sI336
g3197
sI337
g3205
sI339
(dp3214
g481
F0.01804544283004008
ssI340
(dp3215
g481
F0.04559455680537599
ssI431
(dp3216
g481
F0.07035149840368493
ssI352
(dp3217
g481
F0.07334847565229635
ssI379
(dp3218
g481
F0.0738921532706428
ssI348
(dp3219
g481
F0.09922015373488123
ssI349
(dp3220
g481
F0.037493984821122664
ssI350
(dp3221
g481
F0.039361156326424465
ssI351
(dp3222
g481
F0.05355638763928878
sssI339
(dp3223
I224
g2165
sI225
g2185
sI226
g2201
sI379
(dp3224
g481
F0.0634090551595374
ssI431
(dp3225
g481
F0.07294722665119771
ssI335
g3190
sI336
g3198
sI337
g3206
sI338
g3214
sI340
(dp3226
g481
F0.029717467491440365
ssI341
(dp3227
g481
F0.08351052654618009
ssI352
(dp3228
g481
F0.0614607960705208
ssI351
(dp3229
g481
F0.05840540492321831
ssI348
(dp3230
g481
F0.0790011227022945
ssI349
(dp3231
g481
F0.03160571891653592
ssI350
(dp3232
g481
F0.03336170811043462
ssI223
g2143
ssI340
(dp3233
I224
g2166
sI225
g2186
sI226
g2202
sI379
(dp3234
g481
F0.08380208629536033
ssI351
(dp3235
g481
F0.11345520774544379
ssI380
(dp3236
g481
F0.056645545732479013
ssI382
(dp3237
g481
F0.06096152676190065
ssI335
g3191
sI336
g3199
sI337
g3207
sI338
g3215
sI339
g3226
sI350
(dp3238
g481
F0.06370802503049862
ssI341
(dp3239
g481
F0.024392047699064046
ssI342
(dp3240
g481
F0.0937376277929061
ssI381
(dp3241
g481
F0.06295984744802395
ssI347
(dp3242
g481
F0.06221546418046677
ssI348
(dp3243
g481
F0.04013741871429294
ssI349
(dp3244
g481
F0.02319401910517584
ssI222
g2130
sI223
g2144
ssI341
(dp3245
I224
g2167
sI225
g2187
sI226
g2203
sI227
g2217
sI228
g2239
sI349
(dp3246
g481
F0.0487773939558284
ssI339
g3227
sI340
g3239
sI350
(dp3247
g481
F0.10505342670267719
ssI342
(dp3248
g481
F0.03064089648850792
ssI343
(dp3249
g481
F0.1262955409751197
ssI408
(dp3250
g481
F0.49848235606613167
ssI346
(dp3251
g481
F0.0718696470381102
ssI347
(dp3252
g481
F0.03421486221191553
ssI348
(dp3253
g481
F0.03441392112102495
ssI221
g2117
sI222
g2131
sI223
g2145
ssI342
(dp3254
I381
(dp3255
g481
F0.0588540249501548
ssI349
(dp3256
g481
F0.10437205732313132
ssI408
(dp3257
g481
F0.46052274852319025
ssI340
g3240
sI341
g3248
sI406
(dp3258
g481
F0.3572956379113979
ssI343
(dp3259
g481
F0.06012285426208126
ssI344
(dp3260
g481
F0.17019987798721992
ssI345
(dp3261
g481
F0.07592242377216446
ssI346
(dp3262
g481
F0.026116743702288014
ssI347
(dp3263
g481
F0.028929308336776444
ssI348
(dp3264
g481
F0.05693549627952089
ssI221
g2118
sI222
g2132
sI223
g2146
ssI343
(dp3265
I406
(dp3266
g481
F0.20677856746286608
ssI262
g2586
sI263
g2591
sI264
g2610
sI265
g2639
sI266
g2657
sI267
g2675
sI268
g2684
sI408
(dp3267
g481
F0.32273219494886657
ssI341
g3249
sI342
g3259
sI407
(dp3268
g481
F0.31005193136343057
ssI344
(dp3269
g481
F0.045948655498283676
ssI345
(dp3270
g481
F0.07102050018308705
ssI346
(dp3271
g481
F0.06013108305753567
ssI347
(dp3272
g481
F0.10837445178201803
ssI348
(dp3273
g481
F0.11892663818644626
ssI405
(dp3274
g481
F0.2491593959741325
sssI344
(dp3275
I407
(dp3276
g481
F0.3202121454797865
ssI406
(dp3277
g481
F0.20777296146574423
ssI263
g2603
sI264
g2623
sI265
g2640
sI266
g2658
sI267
g2676
sI268
g2685
sI269
g2692
sI176
g1767
sI177
g1773
sI404
(dp3278
g481
F0.23722335681012782
ssI405
(dp3279
g481
F0.23541241023781018
ssI342
g3260
sI343
g3269
sI345
(dp3280
g481
F0.07286144425607756
ssI346
(dp3281
g481
F0.13661548981496677
ssI347
(dp3282
g481
F0.23570834840752586
sssI345
(dp3283
I399
(dp3284
g481
F0.14686382352316169
ssI266
g2659
sI267
g2677
sI268
g2686
sI269
g2693
sI174
g1753
sI175
g1761
sI176
g1768
sI177
g1772
sI84
g1209
sI85
g1221
sI342
g3261
sI343
g3270
sI344
g3280
sI346
(dp3285
g481
F0.0562691644361284
ssI347
(dp3286
g481
F0.1197465210901331
ssI348
(dp3287
g481
F0.18948600860204803
sssI346
(dp3288
I265
g2641
sI266
g2660
sI267
g2678
sI268
g2687
sI397
(dp3289
g481
F0.08620071403163256
ssI174
g1754
sI398
(dp3290
g481
F0.062231258565233476
ssI383
(dp3291
g481
F0.08734816742851981
ssI399
(dp3292
g481
F0.07387437674157124
ssI85
g1222
sI342
g3262
sI343
g3271
sI344
g3281
sI345
g3285
sI396
(dp3293
g481
F0.09140681926856035
ssI347
(dp3294
g481
F0.020762945956832504
ssI348
(dp3295
g481
F0.05552577363993237
ssI381
(dp3296
g481
F0.04329027141768648
ssI382
(dp3297
g481
F0.06562031843097195
ssI341
g3251
ssI347
(dp3298
I384
(dp3299
g481
F0.0711718520999728
ssI385
(dp3300
g481
F0.08743435596870418
ssI380
(dp3301
g481
F0.05530678234345718
ssI266
g2661
sI396
(dp3302
g481
F0.06935305057748757
ssI381
(dp3303
g481
F0.02234155679436797
ssI340
g3242
sI341
g3252
sI342
g3263
sI343
g3272
sI344
g3282
sI345
g3286
sI346
g3294
sI348
(dp3304
g481
F0.02478460168928855
ssI349
(dp3305
g481
F0.05813802250575947
ssI382
(dp3306
g481
F0.031045872037835227
ssI383
(dp3307
g481
F0.051293871611645475
sssI348
(dp3308
I263
g2606
sI293
g2796
sI294
g2806
sI295
g2817
sI296
g2828
sI297
g2843
sI338
g3219
sI339
g3230
sI340
g3243
sI341
g3253
sI342
g3264
sI343
g3273
sI345
g3287
sI346
g3295
sI347
g3304
sI349
(dp3309
g481
F0.022670016294845
ssI350
(dp3310
g481
F0.06563979463439348
ssI223
g2149
sI379
(dp3311
g481
F0.05055981145223496
ssI380
(dp3312
g481
F0.019990931328745156
ssI381
(dp3313
g481
F0.013217815346948677
ssI382
(dp3314
g481
F0.04010267373591602
ssI383
(dp3315
g481
F0.08152391162080155
sssI349
(dp3316
I224
g2168
sI352
(dp3317
g481
F0.10099081749461573
ssI379
(dp3318
g481
F0.031997422894742986
ssI295
g2818
sI380
(dp3319
g481
F0.017319247269161016
ssI382
(dp3320
g481
F0.0506494076614912
ssI334
g3185
sI335
g3192
sI337
g3209
sI338
g3220
sI339
g3231
sI340
g3244
sI341
g3246
sI342
g3256
sI378
(dp3321
g481
F0.08066879213008536
ssI347
g3305
sI348
g3309
sI381
(dp3322
g481
F0.03741162342390627
ssI350
(dp3323
g481
F0.025046817800680254
ssI351
(dp3324
g481
F0.0648386556916699
sssI350
(dp3325
I352
(dp3326
g481
F0.0398513049627702
ssI353
(dp3327
g481
F0.06794154709601002
ssI295
g2819
sI296
g2830
sI297
g2844
sI381
(dp3328
g481
F0.08788506412393929
ssI337
g3210
sI338
g3221
sI339
g3232
sI340
g3238
sI341
g3247
sI377
(dp3329
g481
F0.0707751219700526
ssI378
(dp3330
g481
F0.028777345654396044
ssI379
(dp3331
g481
F0.014267172098175232
ssI348
g3310
sI349
g3323
sI380
(dp3332
g481
F0.034207522402258966
ssI351
(dp3333
g481
F0.01556163588784025
sssI351
(dp3334
I352
(dp3335
g481
F0.021984933428796444
ssI353
(dp3336
g481
F0.03196511350942069
ssI354
(dp3337
g481
F0.08477069547934195
ssI355
(dp3338
g481
F0.0886909500381513
ssI296
g2831
sI297
g2845
sI337
g3211
sI338
g3222
sI339
g3229
sI340
g3235
sI376
(dp3339
g481
F0.15403051414946792
ssI377
(dp3340
g481
F0.057301145594477756
ssI378
(dp3341
g481
F0.03270658442733043
ssI379
(dp3342
g481
F0.039473812196743716
ssI380
(dp3343
g481
F0.07947573024058471
ssI349
g3324
sI350
g3333
ssI352
(dp3344
I225
g2174
sI354
(dp3345
g481
F0.05817914874953011
ssI355
(dp3346
g481
F0.056228242770499925
ssI356
(dp3347
g481
F0.046756906873111306
ssI357
(dp3348
g481
F0.06412363173187235
ssI327
g3112
sI328
g3128
sI329
g3143
sI353
(dp3349
g481
F0.014049052131813065
ssI337
g3204
sI338
g3217
sI339
g3228
sI431
(dp3350
g481
F0.05806581876838559
ssI377
(dp3351
g481
F0.06709362437126583
ssI378
(dp3352
g481
F0.05163957575791866
ssI379
(dp3353
g481
F0.06721524948952694
ssI349
g3317
sI350
g3326
sI351
g3335
ssI353
(dp3354
I352
g3349
sI354
(dp3355
g481
F0.031414783477477295
ssI355
(dp3356
g481
F0.03239457512400336
ssI356
(dp3357
g481
F0.024345997153268382
ssI357
(dp3358
g481
F0.03727216286750609
ssI327
g3113
sI328
g3129
sI329
g3144
sI337
g3203
sI338
g3213
sI377
(dp3359
g481
F0.06301507483091706
ssI350
g3327
sI351
g3336
ssI354
(dp3360
I352
g3345
sI353
g3355
sI355
(dp3361
g481
F0.009875019644175982
ssI356
(dp3362
g481
F0.030594803111183917
ssI357
(dp3363
g481
F0.0342002443248704
ssI358
(dp3364
g481
F0.0449127942569616
ssI327
g3114
sI328
g3130
sI375
(dp3365
g481
F0.07776617330786766
ssI376
(dp3366
g481
F0.07483990071762972
ssI377
(dp3367
g481
F0.05311573160982738
ssI351
g3337
ssI355
(dp3368
I352
g3346
sI353
g3356
sI354
g3361
sI356
(dp3369
g481
F0.01821921339839847
ssI357
(dp3370
g481
F0.0246705948769831
ssI326
g3097
sI327
g3115
sI328
g3131
sI299
g2862
sI301
g2881
sI304
g2921
sI305
g2923
sI308
g2944
sI375
(dp3371
g481
F0.08700147183044517
ssI377
(dp3372
g481
F0.06366387577692034
ssI358
(dp3373
g481
F0.03666542032518493
ssI351
g3338
ssI356
(dp3374
I352
g3347
sI353
g3357
sI354
g3362
sI355
g3369
sI325
g3092
sI326
g3107
sI327
g3116
sI328
g3132
sI329
g3145
sI359
(dp3375
g481
F0.057073372146468175
ssI429
(dp3376
g481
F0.047017202212655235
ssI430
(dp3377
g481
F0.05245237900078524
ssI431
(dp3378
g481
F0.07738401361012695
ssI308
g2945
sI358
(dp3379
g481
F0.032264122890744235
ssI357
(dp3380
g481
F0.008600516373558657
sssI357
(dp3381
I352
g3348
sI353
g3358
sI354
g3363
sI355
g3370
sI356
g3380
sI325
g3082
sI326
g3110
sI327
g3126
sI328
g3133
sI359
(dp3382
g481
F0.043556327455985824
ssI430
(dp3383
g481
F0.07238298017750228
ssI358
(dp3384
g481
F0.01995414305229517
sssI358
(dp3385
I354
g3364
sI355
g3373
sI324
g3079
sI325
g3093
sI326
g3098
sI327
g3125
sI360
(dp3386
g481
F0.09875095318805496
ssI359
(dp3387
g481
F0.045189634082263
ssI305
g2924
sI308
g2946
sI356
g3379
sI357
g3384
ssI359
(dp3388
I323
g3059
sI356
g3375
sI325
g3088
sI326
g3101
sI327
g3117
sI360
(dp3389
g481
F0.07533522344907871
ssI361
(dp3390
g481
F0.16882422319833262
ssI426
(dp3391
g481
F0.07068415218021261
ssI428
(dp3392
g481
F0.08510857081771844
ssI324
g3071
sI358
g3387
sI357
g3382
ssI360
(dp3393
I322
g3049
sI323
g3060
sI324
g3072
sI325
g3085
sI326
g3106
sI359
g3389
sI361
(dp3394
g481
F0.06109305265761308
ssI362
(dp3395
g481
F0.17315459373019723
ssI363
(dp3396
g481
F0.21984710187447554
ssI308
g2948
sI309
g2955
sI312
g2978
sI358
g3386
sI426
(dp3397
g481
F0.12907555030576923
sssI361
(dp3398
I321
g3041
sI322
g3050
sI323
g3061
sI324
g3073
sI325
g3086
sI359
g3390
sI360
g3394
sI362
(dp3399
g481
F0.049386522513930976
ssI363
(dp3400
g481
F0.08664371643841429
ssI364
(dp3401
g481
F0.09537899573447986
ssI312
g2979
sI426
(dp3402
g481
F0.23965162430310882
sssI362
(dp3403
I321
g3042
sI322
g3051
sI323
g3062
sI324
g3074
sI360
g3395
sI361
g3399
sI363
(dp3404
g481
F0.05243510516344676
ssI364
(dp3405
g481
F0.07138243896152631
ssI365
(dp3406
g481
F0.12165901311786315
sssI363
(dp3407
I360
g3396
sI361
g3400
sI362
g3404
sI364
(dp3408
g481
F0.0475166192261723
ssI365
(dp3409
g481
F0.08266659074764585
ssI366
(dp3410
g481
F0.12529507262980286
sssI364
(dp3411
I361
g3401
sI362
g3405
sI363
g3408
sI365
(dp3412
g481
F0.05904780659577011
ssI366
(dp3413
g481
F0.11791553810920084
ssI367
(dp3414
g481
F0.1808518093457421
sssI365
(dp3415
I362
g3406
sI363
g3409
sI364
g3412
sI366
(dp3416
g481
F0.05748679818485358
ssI367
(dp3417
g481
F0.13690436246906945
ssI368
(dp3418
g481
F0.21132969604959337
sssI366
(dp3419
I363
g3410
sI364
g3413
sI365
g3416
sI367
(dp3420
g481
F0.05704156751374211
ssI368
(dp3421
g481
F0.14190150614045818
ssI369
(dp3422
g481
F0.20760936116717194
sssI367
(dp3423
I368
(dp3424
g481
F0.06793631591847257
ssI369
(dp3425
g481
F0.14868811890790515
ssI364
g3414
sI365
g3417
sI366
g3420
ssI368
(dp3426
I365
g3418
sI366
g3421
sI367
g3424
sI369
(dp3427
g481
F0.06716189325315992
ssI370
(dp3428
g481
F0.15702961159947185
ssI371
(dp3429
g481
F0.24365530355002382
sssI369
(dp3430
I366
g3422
sI367
g3425
sI368
g3427
sI370
(dp3431
g481
F0.06729245214228924
ssI371
(dp3432
g481
F0.14096759167357115
ssI372
(dp3433
g481
F0.23467404060922786
sssI370
(dp3434
I368
g3428
sI369
g3431
sI371
(dp3435
g481
F0.09462424643975924
ssI372
(dp3436
g481
F0.21382306866785794
ssI373
(dp3437
g481
F0.43913394922319404
sssI371
(dp3438
I301
g2892
sI302
g2903
sI368
g3429
sI369
g3432
sI370
g3435
sI372
(dp3439
g481
F0.0908816713958325
ssI373
(dp3440
g481
F0.3720109834115819
ssI374
(dp3441
g481
F0.38026644349502503
sssI372
(dp3442
I300
g2874
sI301
g2888
sI302
g2899
sI369
g3433
sI370
g3436
sI371
g3439
sI373
(dp3443
g481
F0.17876522306621995
ssI374
(dp3444
g481
F0.1942956991664964
sssI373
(dp3445
I299
g2863
sI300
g2875
sI301
g2889
sI302
g2900
sI370
g3437
sI371
g3440
sI372
g3443
sI374
(dp3446
g481
F0.03194665147219959
ssI375
(dp3447
g481
F0.11369078470107079
sssI374
(dp3448
I298
g2851
sI299
g2864
sI300
g2876
sI301
g2890
sI302
g2901
sI303
g2911
sI304
g2913
sI371
g3441
sI372
g3444
sI373
g3446
sI375
(dp3449
g481
F0.0371523314220139
ssI376
(dp3450
g481
F0.06316845790570023
ssI377
(dp3451
g481
F0.15226995600161777
sssI375
(dp3452
I354
g3365
sI355
g3371
sI297
g2838
sI298
g2852
sI299
g2865
sI300
g2877
sI301
g2891
sI302
g2902
sI304
g2920
sI373
g3447
sI374
g3449
sI376
(dp3453
g481
F0.019369178520250357
ssI377
(dp3454
g481
F0.0710011108740123
sssI376
(dp3455
I354
g3366
sI263
g2590
sI296
g2824
sI297
g2839
sI298
g2853
sI299
g2866
sI300
g2878
sI301
g2880
sI374
g3450
sI375
g3453
sI377
(dp3456
g481
F0.033871799123887096
ssI378
(dp3457
g481
F0.0891409217962865
ssI379
(dp3458
g481
F0.16200601232929673
ssI351
g3339
ssI377
(dp3459
I263
g2604
sI352
g3351
sI354
g3367
sI355
g3372
sI295
g2814
sI296
g2825
sI297
g2840
sI298
g2854
sI299
g2867
sI353
g3359
sI374
g3451
sI375
g3454
sI376
g3456
sI378
(dp3460
g481
F0.020713106831008972
ssI379
(dp3461
g481
F0.061149190845769696
ssI350
g3329
sI351
g3340
ssI378
(dp3462
I352
g3352
sI294
g2804
sI295
g2815
sI296
g2826
sI297
g2841
sI298
g2855
sI376
g3457
sI377
g3460
sI379
(dp3463
g481
F0.016786250846947702
ssI380
(dp3464
g481
F0.06141896422351126
ssI349
g3321
sI350
g3330
sI351
g3341
ssI379
(dp3465
I352
g3353
sI293
g2795
sI294
g2805
sI295
g2816
sI296
g2827
sI297
g2842
sI263
g2605
sI381
(dp3466
g481
F0.06223918756729978
ssI338
g3218
sI339
g3224
sI340
g3234
sI382
(dp3467
g481
F0.10586452707169738
ssI380
(dp3468
g481
F0.0172567232559929
ssI376
g3458
sI377
g3461
sI378
g3463
sI348
g3311
sI349
g3318
sI350
g3331
sI351
g3342
ssI380
(dp3469
I379
g3468
sI292
g2787
sI293
g2792
sI294
g2803
sI295
g2812
sI296
g2822
sI381
(dp3470
g481
F0.01972790970491803
ssI383
(dp3471
g481
F0.11192624206639443
ssI340
g3236
sI382
(dp3472
g481
F0.05254949492794271
ssI378
g3464
sI347
g3301
sI348
g3312
sI349
g3319
sI350
g3332
sI351
g3343
ssI381
(dp3473
I384
(dp3474
g481
F0.08774098719832549
ssI379
g3466
sI292
g2788
sI293
g2797
sI294
g2807
sI295
g2810
sI296
g2829
sI265
g2642
sI266
g2662
sI398
(dp3475
g481
F0.06485957944617703
ssI399
(dp3476
g481
F0.09266312144764893
ssI340
g3241
sI382
(dp3477
g481
F0.028603877529924968
ssI342
g3255
sI380
g3470
sI346
g3296
sI347
g3303
sI348
g3313
sI349
g3322
sI350
g3328
sI383
(dp3478
g481
F0.06342321721350797
sssI382
(dp3479
I384
(dp3480
g481
F0.03308282455970021
ssI385
(dp3481
g481
F0.05350212032117041
ssI379
g3467
sI293
g2798
sI294
g2808
sI380
g3472
sI395
(dp3482
g481
F0.07355535140105438
ssI396
(dp3483
g481
F0.06977043530913184
ssI397
(dp3484
g481
F0.07959641815668904
ssI398
(dp3485
g481
F0.061437978482494784
ssI381
g3477
sI340
g3237
sI346
g3297
sI347
g3306
sI348
g3314
sI349
g3320
sI383
(dp3486
g481
F0.022598072730272513
sssI383
(dp3487
I384
(dp3488
g481
F0.013625703912519788
ssI385
(dp3489
g481
F0.040520127659692214
ssI293
g2799
sI348
g3315
sI394
(dp3490
g481
F0.05764160867489931
ssI395
(dp3491
g481
F0.02832956733967874
ssI396
(dp3492
g481
F0.026568367573132762
ssI397
(dp3493
g481
F0.03659264831790393
ssI398
(dp3494
g481
F0.04387619884762472
ssI87
g1251
sI346
g3291
sI347
g3307
sI380
g3471
sI381
g3478
sI382
g3486
ssI384
(dp3495
I385
(dp3496
g481
F0.0163647718980659
ssI386
(dp3497
g481
F0.03808383122901456
ssI387
(dp3498
g481
F0.0869714318382403
ssI393
(dp3499
g481
F0.04376597270082491
ssI394
(dp3500
g481
F0.03662943554414659
ssI395
(dp3501
g481
F0.022269819696356365
ssI396
(dp3502
g481
F0.03613536315097747
ssI397
(dp3503
g481
F0.059380768783164166
ssI87
g1236
sI89
g1266
sI90
g1281
sI347
g3299
sI381
g3474
sI382
g3480
sI383
g3488
ssI385
(dp3504
I384
g3496
sI386
(dp3505
g481
F0.016007305500477135
ssI387
(dp3506
g481
F0.061508144226751556
ssI388
(dp3507
g481
F0.15000440666872783
ssI392
(dp3508
g481
F0.08086103171897321
ssI393
(dp3509
g481
F0.034120929051242005
ssI394
(dp3510
g481
F0.03623931256762871
ssI395
(dp3511
g481
F0.0389937644207885
ssI396
(dp3512
g481
F0.061583576308406614
ssI87
g1237
sI90
g1282
sI347
g3300
sI382
g3481
sI383
g3489
ssI386
(dp3513
I384
g3497
sI385
g3505
sI387
(dp3514
g481
F0.02598729132969062
ssI388
(dp3515
g481
F0.0915616805192964
ssI389
(dp3516
g481
F0.21225249452870745
ssI390
(dp3517
g481
F0.1463554492435702
ssI391
(dp3518
g481
F0.10106546279922005
ssI392
(dp3519
g481
F0.04383167100359361
ssI393
(dp3520
g481
F0.018034518689637822
ssI394
(dp3521
g481
F0.03358543805564245
ssI395
(dp3522
g481
F0.05347734572285404
ssI91
g1297
ssI387
(dp3523
I384
g3498
sI385
g3506
sI386
g3514
sI388
(dp3524
g481
F0.033426294977297
ssI389
(dp3525
g481
F0.11000564141870127
ssI390
(dp3526
g481
F0.07367879161319467
ssI391
(dp3527
g481
F0.059871402264717696
ssI392
(dp3528
g481
F0.028823109942554638
ssI393
(dp3529
g481
F0.025807945508383473
ssI394
(dp3530
g481
F0.04218627915810395
ssI90
g1283
sI91
g1298
ssI388
(dp3531
I385
g3507
sI386
g3515
sI387
g3524
sI389
(dp3532
g481
F0.08176366245958229
ssI390
(dp3533
g481
F0.08125816386648722
ssI391
(dp3534
g481
F0.08222372851185666
ssI392
(dp3535
g481
F0.07497345756240614
ssI393
(dp3536
g481
F0.09162079668430885
ssI435
(dp3537
g481
F0.28540522587334866
ssI436
(dp3538
g481
F0.2322375900737815
sssI389
(dp3539
I386
g3516
sI387
g3525
sI388
g3532
sI390
(dp3540
g481
F0.04326332116296915
ssI391
(dp3541
g481
F0.09064259620254353
ssI392
(dp3542
g481
F0.15042665003401925
ssI74
g1143
sI75
g1145
sI78
g1165
ssI390
(dp3543
I386
g3517
sI387
g3526
sI388
g3533
sI389
g3540
sI391
(dp3544
g481
F0.01930099646587434
ssI392
(dp3545
g481
F0.07232755339042675
ssI393
(dp3546
g481
F0.10959559923794976
ssI92
g1323
ssI391
(dp3547
I386
g3518
sI387
g3527
sI388
g3534
sI389
g3541
sI390
g3544
sI392
(dp3548
g481
F0.03920914991904932
ssI393
(dp3549
g481
F0.06865075252308701
ssI91
g1305
sI92
g1319
sI93
g1328
ssI392
(dp3550
I385
g3508
sI386
g3519
sI387
g3528
sI388
g3535
sI389
g3542
sI390
g3545
sI391
g3548
sI393
(dp3551
g481
F0.016086105532898
ssI394
(dp3552
g481
F0.03794755812363214
ssI90
g1291
sI91
g1307
sI92
g1320
sI93
g1329
sI94
g1339
ssI393
(dp3553
I384
g3499
sI385
g3509
sI386
g3520
sI387
g3529
sI388
g3536
sI390
g3546
sI391
g3549
sI392
g3551
sI394
(dp3554
g481
F0.010935154154439129
ssI395
(dp3555
g481
F0.03172248799621634
ssI87
g1246
sI89
g1267
sI90
g1295
sI91
g1308
sI92
g1317
sI93
g1330
ssI394
(dp3556
I384
g3500
sI385
g3510
sI386
g3521
sI387
g3530
sI168
g1723
sI393
g3554
sI395
(dp3557
g481
F0.011778607525758041
ssI396
(dp3558
g481
F0.03554129134719565
ssI392
g3552
sI86
g1234
sI87
g1250
sI88
g1264
sI89
g1279
sI90
g1294
sI91
g1304
sI92
g1318
sI383
g3490
ssI395
(dp3559
I384
g3501
sI385
g3511
sI386
g3522
sI393
g3555
sI169
g1725
sI394
g3557
sI396
(dp3560
g481
F0.010733423998326386
ssI397
(dp3561
g481
F0.033192495510606136
ssI86
g1224
sI87
g1238
sI88
g1253
sI89
g1268
sI90
g1289
sI91
g1306
sI382
g3482
sI383
g3491
ssI396
(dp3562
I384
g3502
sI385
g3512
sI394
g3558
sI395
g3560
sI172
g1737
sI397
(dp3563
g481
F0.010802289664845373
ssI398
(dp3564
g481
F0.03949235172063749
ssI399
(dp3565
g481
F0.09541033850465612
ssI85
g1213
sI86
g1225
sI87
g1245
sI88
g1261
sI89
g1276
sI90
g1290
sI347
g3302
sI346
g3293
sI382
g3483
sI383
g3492
ssI397
(dp3566
I384
g3503
sI396
g3563
sI395
g3561
sI172
g1741
sI173
g1743
sI174
g1752
sI399
(dp3567
g481
F0.06872844915569849
ssI400
(dp3568
g481
F0.1061199286947866
ssI398
(dp3569
g481
F0.020712376605870827
ssI87
g1244
sI88
g1260
sI89
g1275
sI346
g3289
sI382
g3484
sI383
g3493
ssI398
(dp3570
I292
g2784
sI293
g2793
sI266
g2647
sI396
g3564
sI397
g3569
sI399
(dp3571
g481
F0.04143917745180305
ssI400
(dp3572
g481
F0.0906563661134025
ssI401
(dp3573
g481
F0.16201126887961553
ssI346
g3290
sI381
g3475
sI382
g3485
sI383
g3494
ssI399
(dp3574
I396
g3565
sI292
g2785
sI293
g2794
sI265
g2631
sI266
g2648
sI267
g2668
sI268
g2688
sI397
g3567
sI174
g1755
sI400
(dp3575
g481
F0.03752028496811725
ssI401
(dp3576
g481
F0.06852154815434415
ssI402
(dp3577
g481
F0.17243634229928523
ssI398
g3571
sI345
g3284
sI346
g3292
sI381
g3476
ssI400
(dp3578
I292
g2786
sI266
g2649
sI267
g2664
sI397
g3568
sI398
g3572
sI399
g3575
sI401
(dp3579
g481
F0.04769214929711818
ssI402
(dp3580
g481
F0.2254458062705977
sssI401
(dp3581
I265
g2632
sI266
g2650
sI267
g2669
sI268
g2681
sI398
g3573
sI399
g3576
sI400
g3579
sI402
(dp3582
g481
F0.09631360273869538
ssI403
(dp3583
g481
F0.1794999473322413
ssI404
(dp3584
g481
F0.29169427113028457
sssI402
(dp3585
I264
g2617
sI265
g2634
sI266
g2651
sI267
g2670
sI268
g2682
sI399
g3577
sI400
g3580
sI401
g3582
sI403
(dp3586
g481
F0.04636506124116187
ssI404
(dp3587
g481
F0.09699166883725051
ssI405
(dp3588
g481
F0.1382221249179263
sssI403
(dp3589
I264
g2618
sI265
g2635
sI266
g2652
sI267
g2671
sI401
g3583
sI402
g3586
sI404
(dp3590
g481
F0.044082298289372594
ssI405
(dp3591
g481
F0.092734466429078
sssI404
(dp3592
I263
g2599
sI264
g2619
sI265
g2636
sI266
g2653
sI267
g2672
sI401
g3584
sI402
g3587
sI403
g3590
sI405
(dp3593
g481
F0.03945260687510004
ssI406
(dp3594
g481
F0.06754781799064052
ssI344
g3278
ssI405
(dp3595
I343
g3274
sI407
(dp3596
g481
F0.05153420145829901
ssI262
g2584
sI263
g2600
sI264
g2620
sI265
g2637
sI266
g2654
sI267
g2673
sI402
g3588
sI403
g3591
sI404
g3593
sI406
(dp3597
g481
F0.02399018466373256
ssI297
g2836
sI344
g3279
ssI406
(dp3598
I343
g3266
sI407
(dp3599
g481
F0.035541167824870074
ssI261
g2571
sI262
g2585
sI263
g2601
sI264
g2621
sI265
g2638
sI266
g2655
sI267
g2674
sI408
(dp3600
g481
F0.08539676674309096
ssI404
g3594
sI405
g3597
sI342
g3258
sI297
g2837
sI344
g3277
ssI407
(dp3601
I260
g2558
sI261
g2572
sI262
g2583
sI263
g2592
sI264
g2611
sI297
g2834
sI298
g2850
sI408
(dp3602
g481
F0.040583502558021074
ssI405
g3596
sI406
g3599
sI343
g3268
sI344
g3276
sI409
(dp3603
g481
F0.09520374349422998
sssI408
(dp3604
I409
(dp3605
g481
F0.059698213739843756
ssI258
g2532
sI259
g2545
sI260
g2559
sI229
g2245
sI262
g2587
sI263
g2608
sI407
g3602
sI341
g3250
sI342
g3257
sI343
g3267
sI228
g2235
sI410
(dp3606
g481
F0.15748204262872292
ssI411
(dp3607
g481
F0.2660464904029438
ssI406
g3600
sI261
g2573
ssI409
(dp3608
I257
g2523
sI258
g2533
sI227
g2222
sI228
g2236
sI229
g2246
sI230
g2253
sI262
g2588
sI259
g2544
sI407
g3603
sI408
g3605
sI260
g2560
sI410
(dp3609
g481
F0.07068958966365828
ssI411
(dp3610
g481
F0.12841923187863444
ssI412
(dp3611
g481
F0.34364523719534606
ssI261
g2564
ssI410
(dp3612
I257
g2524
sI226
g2206
sI227
g2223
sI228
g2237
sI229
g2247
sI230
g2254
sI232
g2273
sI258
g2534
sI259
g2547
sI261
g2574
sI409
g3609
sI408
g3606
sI260
g2561
sI411
(dp3613
g481
F0.040537196899200593
ssI412
(dp3614
g481
F0.11435995762346378
ssI413
(dp3615
g481
F0.20875571325402953
ssI254
g2495
sI255
g2508
ssI411
(dp3616
I256
g2516
sI257
g2525
sI226
g2207
sI227
g2224
sI228
g2238
sI229
g2248
sI230
g2255
sI231
g2262
sI232
g2274
sI233
g2285
sI258
g2535
sI413
(dp3617
g481
F0.2093449611249544
ssI259
g2548
sI409
g3610
sI408
g3607
sI260
g2562
sI410
g3613
sI412
(dp3618
g481
F0.08119177028407815
ssI253
g2480
sI254
g2496
sI255
g2509
ssI412
(dp3619
I256
g2517
sI258
g2536
sI259
g2549
sI409
g3611
sI410
g3614
sI411
g3618
sI413
(dp3620
g481
F0.03991550593379007
ssI414
(dp3621
g481
F0.13888792430140284
ssI442
(dp3622
g481
F0.47945154002258533
ssI225
g2189
sI226
g2196
sI227
g2215
sI228
g2231
sI229
g2249
sI230
g2256
sI237
g2323
sI238
g2330
sI239
g2344
sI252
g2466
sI253
g2479
sI254
g2492
sI255
g2510
ssI413
(dp3623
I224
g2151
sI225
g2190
sI226
g2198
sI227
g2218
sI228
g2240
sI412
g3620
sI431
(dp3624
g481
F0.05168909735513524
ssI411
g3617
sI239
g2341
sI432
(dp3625
g481
F0.11386550005107349
ssI415
(dp3626
g481
F0.04475377071974041
ssI414
(dp3627
g481
F0.04416047646020455
ssI410
g3615
sI251
g2463
sI252
g2467
sI253
g2485
sI254
g2494
sI255
g2507
ssI414
(dp3628
I224
g2152
sI225
g2191
sI226
g2204
sI227
g2220
sI412
g3621
sI430
(dp3629
g481
F0.03479709922461065
ssI413
g3627
sI432
(dp3630
g481
F0.0362406104586084
ssI433
(dp3631
g481
F0.12767408265595967
ssI434
(dp3632
g481
F0.1766262266971842
ssI416
(dp3633
g481
F0.02046589523868419
ssI431
(dp3634
g481
F0.025924406527287225
ssI438
(dp3635
g481
F0.26720868860009056
ssI439
(dp3636
g481
F0.32586611330682613
ssI250
g2452
sI251
g2459
sI252
g2468
sI253
g2482
sI254
g2497
sI415
(dp3637
g481
F0.01119430576343706
sssI415
(dp3638
I416
(dp3639
g481
F0.009402110077058592
ssI225
g2188
sI226
g2195
sI326
g3108
sI417
(dp3640
g481
F0.02138313049925983
ssI429
(dp3641
g481
F0.03233713464406836
ssI430
(dp3642
g481
F0.017137083447471564
ssI413
g3626
sI432
(dp3643
g481
F0.04661070395650552
ssI433
(dp3644
g481
F0.16109746489142002
ssI431
(dp3645
g481
F0.02165663792675844
ssI249
g2440
sI250
g2453
sI251
g2464
sI252
g2469
sI253
g2481
sI414
g3637
ssI416
(dp3646
I417
(dp3647
g481
F0.011471853258152255
ssI418
(dp3648
g481
F0.02024441197574824
ssI428
(dp3649
g481
F0.060934602832547285
ssI429
(dp3650
g481
F0.043144574418951843
ssI430
(dp3651
g481
F0.026528398589793008
ssI431
(dp3652
g481
F0.034395537199725386
ssI432
(dp3653
g481
F0.03965984306501004
ssI433
(dp3654
g481
F0.1404941017320809
ssI246
g2406
sI247
g2415
sI248
g2425
sI249
g2433
sI250
g2442
sI251
g2455
sI252
g2470
sI414
g3633
sI415
g3639
ssI417
(dp3655
I416
g3647
sI418
(dp3656
g481
F0.013319228257188979
ssI419
(dp3657
g481
F0.07114042789382742
ssI326
g3096
sI427
(dp3658
g481
F0.06094315506095873
ssI428
(dp3659
g481
F0.04018420225294877
ssI429
(dp3660
g481
F0.027665107912414097
ssI430
(dp3661
g481
F0.029624508388221237
ssI431
(dp3662
g481
F0.05318286426177275
ssI432
(dp3663
g481
F0.0746282634618103
ssI244
g2393
sI245
g2400
sI246
g2407
sI247
g2416
sI248
g2426
sI249
g2434
sI250
g2443
sI251
g2456
sI415
g3640
ssI418
(dp3664
I416
g3648
sI417
g3656
sI419
(dp3665
g481
F0.05582951758889342
ssI420
(dp3666
g481
F0.12579731091876942
ssI421
(dp3667
g481
F0.20127823806357292
ssI427
(dp3668
g481
F0.07740397788695227
ssI428
(dp3669
g481
F0.05265805481208124
ssI429
(dp3670
g481
F0.040132641208181524
ssI430
(dp3671
g481
F0.03289019016049639
ssI246
g2408
sI247
g2417
sI248
g2427
ssI419
(dp3672
I417
g3657
sI418
g3665
sI420
(dp3673
g481
F0.06997401509903431
ssI421
(dp3674
g481
F0.1200580486190931
ssI422
(dp3675
g481
F0.1550963571642134
ssI423
(dp3676
g481
F0.12356343446424571
ssI427
(dp3677
g481
F0.11906507385688028
ssI428
(dp3678
g481
F0.1053396145141555
ssI429
(dp3679
g481
F0.09335873956579871
ssI247
g2418
ssI420
(dp3680
I418
g3666
sI419
g3673
sI421
(dp3681
g481
F0.07411685787024395
ssI422
(dp3682
g481
F0.17007106618126672
ssI423
(dp3683
g481
F0.13822862672722586
ssI426
(dp3684
g481
F0.1607982292074115
ssI427
(dp3685
g481
F0.15290204699821758
ssI428
(dp3686
g481
F0.13817579219565876
sssI421
(dp3687
I418
g3667
sI419
g3674
sI420
g3681
sI422
(dp3688
g481
F0.07723616156647926
ssI423
(dp3689
g481
F0.13055932792642058
ssI424
(dp3690
g481
F0.24111405997389856
sssI422
(dp3691
I419
g3675
sI420
g3682
sI421
g3688
sI423
(dp3692
g481
F0.08553609121956894
ssI424
(dp3693
g481
F0.1795766236158158
ssI425
(dp3694
g481
F0.18997981963522298
ssI426
(dp3695
g481
F0.19817600430393084
sssI423
(dp3696
I419
g3676
sI420
g3683
sI421
g3689
sI422
g3692
sI424
(dp3697
g481
F0.08223155877732762
ssI425
(dp3698
g481
F0.12959611143003566
ssI426
(dp3699
g481
F0.11456292903336196
ssI427
(dp3700
g481
F0.1052782911195195
sssI424
(dp3701
I322
g3053
sI323
g3065
sI421
g3690
sI422
g3693
sI423
g3697
sI425
(dp3702
g481
F0.07426938538824354
ssI426
(dp3703
g481
F0.0742793364345528
ssI427
(dp3704
g481
F0.07978896812595343
sssI425
(dp3705
I321
g3043
sI322
g3054
sI323
g3066
sI324
g3078
sI422
g3694
sI423
g3698
sI424
g3702
sI426
(dp3706
g481
F0.01118544528567341
ssI427
(dp3707
g481
F0.026190470524986895
sssI426
(dp3708
I321
g3044
sI322
g3055
sI323
g3067
sI324
g3080
sI325
g3087
sI422
g3695
sI359
g3391
sI360
g3397
sI361
g3402
sI423
g3699
sI428
(dp3709
g481
F0.018589373136840982
ssI424
g3703
sI425
g3706
sI420
g3684
sI427
(dp3710
g481
F0.0073102230728247924
sssI427
(dp3711
I417
g3658
sI322
g3052
sI323
g3063
sI324
g3075
sI325
g3094
sI326
g3109
sI423
g3700
sI424
g3704
sI425
g3707
sI426
g3710
sI428
(dp3712
g481
F0.00908291122615932
ssI418
g3668
sI429
(dp3713
g481
F0.02082282921735518
ssI419
g3677
sI420
g3685
sI319
g3032
ssI428
(dp3714
I416
g3649
sI417
g3659
sI418
g3669
sI323
g3064
sI324
g3076
sI325
g3089
sI326
g3102
sI359
g3392
sI426
g3709
sI327
g3121
sI429
(dp3715
g481
F0.006163838732142635
ssI430
(dp3716
g481
F0.027823765705812107
ssI419
g3678
sI420
g3686
sI427
g3712
ssI429
(dp3717
I416
g3650
sI417
g3660
sI418
g3670
sI419
g3679
sI324
g3077
sI325
g3090
sI326
g3103
sI327
g3122
sI328
g3137
sI329
g3149
sI427
g3713
sI428
g3715
sI430
(dp3718
g481
F0.01573370379393743
ssI431
(dp3719
g481
F0.04851132185735589
ssI432
(dp3720
g481
F0.12001093695553693
ssI247
g2419
sI356
g3376
sI415
g3641
ssI430
(dp3721
I416
g3651
sI225
g2180
sI418
g3671
sI356
g3377
sI325
g3091
sI326
g3104
sI327
g3123
sI328
g3138
sI329
g3150
sI428
g3716
sI429
g3718
sI431
(dp3722
g481
F0.012780510706519088
ssI432
(dp3723
g481
F0.06739631218138463
ssI417
g3661
sI415
g3642
sI414
g3629
sI357
g3383
ssI431
(dp3724
I413
g3624
sI414
g3634
sI415
g3645
sI416
g3652
sI417
g3662
sI429
g3719
sI430
g3722
sI432
(dp3725
g481
F0.0437730716459217
ssI433
(dp3726
g481
F0.15468013901396768
ssI352
g3350
sI326
g3105
sI327
g3124
sI328
g3139
sI329
g3151
sI337
g3208
sI338
g3216
sI339
g3225
sI224
g2153
sI225
g2181
sI226
g2197
sI356
g3378
sI250
g2448
sI251
g2460
ssI432
(dp3727
I413
g3625
sI414
g3630
sI415
g3643
sI416
g3653
sI417
g3663
sI429
g3720
sI430
g3723
sI431
g3725
sI433
(dp3728
g481
F0.07655050663490622
ssI434
(dp3729
g481
F0.11899451089500056
ssI435
(dp3730
g481
F0.176861446115059
ssI329
g3155
sI336
g3195
sI337
g3202
sI224
g2154
sI225
g2177
sI226
g2199
sI248
g2428
sI249
g2436
sI250
g2445
sI251
g2457
sI252
g2471
ssI433
(dp3731
I224
g2155
sI225
g2178
sI226
g2200
sI432
g3728
sI435
(dp3732
g481
F0.1230499805965375
ssI431
g3726
sI336
g3194
sI434
(dp3733
g481
F0.1065788744845601
ssI416
g3654
sI436
(dp3734
g481
F0.18071397722904103
ssI438
(dp3735
g481
F0.17079921589194902
ssI249
g2435
sI250
g2446
sI251
g2458
sI414
g3631
sI415
g3644
ssI434
(dp3736
I224
g2156
sI225
g2179
sI433
g3733
sI432
g3729
sI336
g3200
sI435
(dp3737
g481
F0.07783188883041958
ssI436
(dp3738
g481
F0.14873929856441784
ssI437
(dp3739
g481
F0.21813582034212903
ssI438
(dp3740
g481
F0.17640656309166242
ssI250
g2447
sI414
g3632
ssI435
(dp3741
I224
g2157
sI388
g3537
sI432
g3730
sI433
g3732
sI434
g3737
sI436
(dp3742
g481
F0.0365634668085427
ssI437
(dp3743
g481
F0.06819727021001325
ssI438
(dp3744
g481
F0.057523162606362144
ssI439
(dp3745
g481
F0.10082545710650442
sssI436
(dp3746
I224
g2158
sI388
g3538
sI433
g3734
sI434
g3738
sI435
g3742
sI437
(dp3747
g481
F0.0322928714018796
ssI438
(dp3748
g481
F0.060032405273302905
ssI439
(dp3749
g481
F0.08497255042379458
ssI440
(dp3750
g481
F0.12662609593404087
ssI441
(dp3751
g481
F0.15385440916235293
ssI221
g2116
sI222
g2135
sI223
g2148
ssI437
(dp3752
I70
g1111
sI71
g1122
sI74
g1142
sI434
g3739
sI435
g3743
sI436
g3747
sI438
(dp3753
g481
F0.03965153294780819
ssI439
(dp3754
g481
F0.07449000085105903
ssI440
(dp3755
g481
F0.08079330747269138
ssI441
(dp3756
g481
F0.09950836384349226
ssI442
(dp3757
g481
F0.33205173931608617
ssI222
g2129
ssI438
(dp3758
I64
g1037
sI65
g1067
sI227
g2214
sI70
g1112
sI444
(dp3759
g481
F0.3420282161274602
ssI224
g2159
sI433
g3735
sI434
g3740
sI435
g3744
sI436
g3748
sI414
g3635
sI439
(dp3760
g481
F0.030824738011609676
ssI440
(dp3761
g481
F0.07972493130269248
ssI441
(dp3762
g481
F0.07694303354298647
ssI250
g2444
sI443
(dp3763
g481
F0.3836330644125535
ssI252
g2472
sI442
(dp3764
g481
F0.2375338903184819
ssI222
g2128
sI437
g3753
ssI439
(dp3765
I224
g2160
sI226
g2205
sI227
g2221
sI228
g2234
sI70
g1113
sI444
(dp3766
g481
F0.3914398283366082
ssI252
g2473
sI437
g3754
sI435
g3745
sI436
g3749
sI414
g3636
sI438
g3760
sI440
(dp3767
g481
F0.05242649976310574
ssI441
(dp3768
g481
F0.12722308970722512
ssI442
(dp3769
g481
F0.2877377844783171
ssI443
(dp3770
g481
F0.38744105832452286
ssI220
g2111
sI221
g2119
sI222
g2133
sI223
g2147
ssI440
(dp3771
I443
(dp3772
g481
F0.25957175563790547
ssI69
g1101
sI70
g1114
sI444
(dp3773
g481
F0.24094680968170246
ssI73
g1134
sI445
(dp3774
g481
F0.5022253634412861
ssI436
g3750
sI437
g3755
sI438
g3761
sI439
g3767
sI441
(dp3775
g481
F0.08868521839000935
ssI218
g2099
sI219
g2106
sI220
g2112
sI221
g2120
sI222
g2134
sI442
(dp3776
g481
F0.2895748398300424
sssI441
(dp3777
I64
g1038
sI65
g1068
sI67
g1082
sI69
g1102
sI70
g1115
sI444
(dp3778
g481
F0.14424934165134723
ssI202
g2014
sI436
g3751
sI437
g3756
sI438
g3762
sI439
g3768
sI440
g3775
sI442
(dp3779
g481
F0.13942629641049653
ssI443
(dp3780
g481
F0.21022827089646695
ssI252
g2474
sI445
(dp3781
g481
F0.2278133455024374
ssI446
(dp3782
g481
F0.4917607486308013
sssI442
(dp3783
I64
g1039
sI227
g2216
sI444
(dp3784
g481
F0.25727723144403786
ssI412
g3622
sI202
g2015
sI445
(dp3785
g481
F0.24059563718396157
ssI240
g2363
sI437
g3757
sI438
g3764
sI439
g3769
sI440
g3776
sI441
g3779
sI443
(dp3786
g481
F0.14241916680409186
ssI252
g2475
sI253
g2484
sI446
(dp3787
g481
F0.49168872452384355
sssI443
(dp3788
I64
g1040
sI445
(dp3789
g481
F0.19824947496687748
ssI438
g3763
sI439
g3770
sI440
g3772
sI441
g3780
sI218
g2101
sI444
(dp3790
g481
F0.10496477939401332
ssI442
g3786
sI446
(dp3791
g481
F0.31259959667079273
ssI447
(dp3792
g481
F0.3223907582442642
sssI444
(dp3793
I64
g1041
sI448
(dp3794
g481
F0.15568761371436307
ssI194
g1933
sI67
g1084
sI69
g1104
sI70
g1116
sI202
g2016
sI439
g3766
sI445
(dp3795
g481
F0.08892004746402206
ssI438
g3759
sI215
g2088
sI440
g3773
sI441
g3778
sI218
g2100
sI443
g3790
sI442
g3784
sI446
(dp3796
g481
F0.17109297242915433
ssI447
(dp3797
g481
F0.11703731694086533
sssI445
(dp3798
I64
g1042
sI65
g1069
sI194
g1934
sI67
g1085
sI447
(dp3799
g481
F0.160987323984118
ssI200
g2000
sI201
g2012
sI202
g2017
sI203
g2032
sI240
g2357
sI195
g1962
sI448
(dp3800
g481
F0.2185984470773101
ssI446
(dp3801
g481
F0.0920485621657149
ssI440
g3774
sI441
g3781
sI442
g3785
sI443
g3789
sI444
g3795
sI62
g1017
sI63
g1031
ssI446
(dp3802
I64
g1043
sI193
g1917
sI194
g1935
sI195
g1961
sI196
g1974
sI197
g1984
sI200
g2001
sI201
g2011
sI202
g2018
sI203
g2036
sI206
g2048
sI209
g2058
sI448
(dp3803
g481
F0.17727461879434933
ssI447
(dp3804
g481
F0.08530062729368693
ssI441
g3782
sI442
g3787
sI443
g3791
sI444
g3796
sI445
g3801
sI62
g1019
sI63
g1034
ssI447
(dp3805
I192
g1913
sI449
(dp3806
g481
F0.0677820722755979
ssI450
(dp3807
g481
F0.08291322095888229
ssI195
g1963
sI448
(dp3808
g481
F0.029227533970117486
ssI443
g3792
sI444
g3797
sI445
g3799
sI446
g3804
sI63
g1035
sI64
g1058
sI193
g1918
sI194
g1936
sI67
g1083
sI69
g1105
sI202
g2019
sI209
g2059
sI210
g2063
sI211
g2071
sI212
g2077
sI215
g2091
sI62
g1018
ssI448
(dp3809
I192
g1901
sI449
(dp3810
g481
F0.020448252642399262
ssI450
(dp3811
g481
F0.03806265536157718
ssI16
g593
sI17
g604
sI18
g614
sI195
g1948
sI444
g3794
sI445
g3800
sI446
g3803
sI447
g3808
sI64
g1044
sI193
g1915
sI194
g1931
sI67
g1081
sI68
g1092
sI69
g1095
sI211
g2070
sI63
g1033
sI61
g992
sI62
g1016
sI191
g1894
ssI449
(dp3812
I448
g3810
sI450
(dp3813
g481
F0.015317570631133795
ssI14
g576
sI15
g584
sI16
g598
sI17
g608
sI18
g615
sI19
g624
sI20
g636
sI21
g648
sI185
g1832
sI186
g1845
sI190
g1881
sI447
g3806
sI192
g1905
sI193
g1919
sI194
g1932
sI451
(dp3814
g481
F0.029350225023917795
ssI68
g1093
sI69
g1103
sI211
g2066
sI212
g2074
sI213
g2079
sI191
g1895
ssI450
(dp3815
I192
g1906
sI193
g1916
sI451
(dp3816
g481
F0.007732587392616156
ssI452
(dp3817
g481
F0.043993226228957974
ssI453
(dp3818
g481
F0.05607718129222615
ssI211
g2068
sI449
g3813
sI13
g559
sI14
g571
sI15
g585
sI16
g595
sI17
g605
sI18
g616
sI19
g625
sI448
g3811
sI186
g1851
sI447
g3807
sI189
g1873
sI190
g1886
sI191
g1891
ssI451
(dp3819
I192
g1904
sI449
g3814
sI450
g3816
sI452
(dp3820
g481
F0.026379860182656433
ssI453
(dp3821
g481
F0.039351670748238574
ssI13
g560
sI14
g572
sI15
g586
sI16
g596
sI17
g606
sI18
g617
sI19
g626
sI186
g1847
sI187
g1859
sI188
g1866
sI189
g1874
sI190
g1883
sI191
g1892
ssI452
(dp3822
I450
g3817
sI451
g3820
sI453
(dp3823
g481
F0.01273788946901406
ssI454
(dp3824
g481
F0.041113998083944295
ssI455
(dp3825
g481
F0.1005344944928177
ssI12
g549
sI13
g561
sI14
g573
sI15
g587
sI16
g597
sI17
g607
sI188
g1867
sI189
g1875
sI190
g1884
sI191
g1893
ssI453
(dp3826
I450
g3818
sI451
g3821
sI452
g3823
sI454
(dp3827
g481
F0.0203564553284921
ssI455
(dp3828
g481
F0.07661858764928042
ssI456
(dp3829
g481
F0.1297973808667705
ssI12
g550
sI13
g562
sI14
g574
sI15
g588
sI189
g1876
sI190
g1885
ssI454
(dp3830
I452
g3824
sI453
g3827
sI455
(dp3831
g481
F0.03507707866004909
ssI456
(dp3832
g481
F0.0836517918258264
ssI11
g541
sI12
g551
sI13
g563
sI14
g575
ssI455
(dp3833
I452
g3825
sI453
g3828
sI454
g3831
sI456
(dp3834
g481
F0.04648075681283844
ssI457
(dp3835
g481
F0.10973361380845016
ssI10
g533
sI11
g542
sI12
g552
sI13
g564
sI14
g577
ssI456
(dp3836
I453
g3829
sI454
g3832
sI455
g3834
sI9
g529
sI10
g538
sI11
g545
sI12
g553
sI13
g565
sI457
(dp3837
g481
F0.0366009330541492
ssI458
(dp3838
g481
F0.11528499101262094
sssI457
(dp3839
I459
(dp3840
g481
F0.08035463265380874
ssI455
g3835
sI8
g516
sI9
g525
sI10
g539
sI11
g546
sI12
g554
sI13
g566
sI456
g3837
sI460
(dp3841
g481
F0.13993890634130246
ssI458
(dp3842
g481
F0.03864484540472223
sssI458
(dp3843
I459
(dp3844
g481
F0.020735683221284277
ssI7
g510
sI8
g522
sI9
g530
sI10
g534
sI11
g547
sI460
(dp3845
g481
F0.06288151866679688
ssI461
(dp3846
g481
F0.10798891569629554
ssI456
g3838
sI457
g3842
ssI459
(dp3847
I6
g505
sI7
g511
sI8
g515
sI9
g524
sI10
g532
sI460
(dp3848
g481
F0.025595365725950555
ssI461
(dp3849
g481
F0.05836161552519326
ssI457
g3840
sI458
g3844
ssI460
(dp3850
I6
g506
sI7
g512
sI8
g519
sI9
g528
sI458
g3845
sI459
g3848
sI461
(dp3851
g481
F0.023556993444971818
ssI457
g3841
ssI461
(dp3852
I8
g520
sI458
g3846
sI459
g3849
sI460
g3851
sI7
g513
sssS'adjlist_outer_dict_factory'
p3853
g7
sb.